(lp0
(lp1
I1
aI0
aI0
aS'wall.png'
p2
aI01
aa(lp3
I1
aI50
aI0
ag2
aI01
aa(lp4
I1
aI100
aI0
ag2
aI01
aa(lp5
I1
aI150
aI0
ag2
aI01
aa(lp6
I1
aI200
aI0
ag2
aI01
aa(lp7
I1
aI250
aI0
ag2
aI01
aa(lp8
I1
aI300
aI0
ag2
aI01
aa(lp9
I1
aI350
aI0
ag2
aI01
aa(lp10
I1
aI400
aI0
ag2
aI01
aa(lp11
I1
aI450
aI0
ag2
aI01
aa(lp12
I1
aI500
aI0
ag2
aI01
aa(lp13
I1
aI550
aI0
ag2
aI01
aa(lp14
I1
aI600
aI0
ag2
aI01
aa(lp15
I1
aI650
aI0
ag2
aI01
aa(lp16
I1
aI700
aI0
ag2
aI01
aa(lp17
I1
aI750
aI0
ag2
aI01
aa(lp18
I1
aI800
aI0
ag2
aI01
aa(lp19
I1
aI850
aI0
ag2
aI01
aa(lp20
I1
aI900
aI0
ag2
aI01
aa(lp21
I1
aI950
aI0
ag2
aI01
aa(lp22
I1
aI1000
aI0
ag2
aI01
aa(lp23
I1
aI1050
aI0
ag2
aI01
aa(lp24
I1
aI1100
aI0
ag2
aI01
aa(lp25
I1
aI1150
aI0
ag2
aI01
aa(lp26
I1
aI1200
aI0
ag2
aI01
aa(lp27
I1
aI0
aI50
ag2
aI01
aa(lp28
I2
aI50
aI50
aS'stairsBroken.png'
p29
aI00
aa(lp30
I0
aI100
aI50
aS'sand.png'
p31
aI00
aa(lp32
I0
aI150
aI50
ag31
aI00
aa(lp33
I0
aI200
aI50
ag31
aI00
aa(lp34
I0
aI250
aI50
ag31
aI00
aa(lp35
I0
aI300
aI50
ag31
aI00
aa(lp36
I0
aI350
aI50
ag31
aI00
aa(lp37
I0
aI400
aI50
ag31
aI00
aa(lp38
I0
aI450
aI50
ag31
aI00
aa(lp39
I0
aI500
aI50
ag31
aI00
aa(lp40
I0
aI550
aI50
ag31
aI00
aa(lp41
I0
aI600
aI50
ag31
aI00
aa(lp42
I0
aI650
aI50
ag31
aI00
aa(lp43
I0
aI700
aI50
ag31
aI00
aa(lp44
I0
aI750
aI50
ag31
aI00
aa(lp45
I0
aI800
aI50
ag31
aI00
aa(lp46
I0
aI850
aI50
ag31
aI00
aa(lp47
I0
aI900
aI50
ag31
aI00
aa(lp48
I0
aI950
aI50
ag31
aI00
aa(lp49
I0
aI1100
aI50
ag31
aI00
aa(lp50
I0
aI1150
aI50
ag31
aI00
aa(lp51
I1
aI1200
aI50
ag2
aI01
aa(lp52
I1
aI0
aI100
ag2
aI01
aa(lp53
I0
aI50
aI100
ag31
aI00
aa(lp54
I0
aI100
aI100
ag31
aI00
aa(lp55
I0
aI150
aI100
ag31
aI00
aa(lp56
I0
aI200
aI100
ag31
aI00
aa(lp57
I0
aI250
aI100
ag31
aI00
aa(lp58
I0
aI300
aI100
ag31
aI00
aa(lp59
I0
aI350
aI100
ag31
aI00
aa(lp60
I0
aI400
aI100
ag31
aI00
aa(lp61
I0
aI450
aI100
ag31
aI00
aa(lp62
I0
aI500
aI100
ag31
aI00
aa(lp63
I0
aI550
aI100
ag31
aI00
aa(lp64
I0
aI600
aI100
ag31
aI00
aa(lp65
I0
aI650
aI100
ag31
aI00
aa(lp66
I0
aI700
aI100
ag31
aI00
aa(lp67
I0
aI750
aI100
ag31
aI00
aa(lp68
I0
aI800
aI100
ag31
aI00
aa(lp69
I0
aI850
aI100
ag31
aI00
aa(lp70
I0
aI1100
aI100
ag31
aI00
aa(lp71
I0
aI1150
aI100
ag31
aI00
aa(lp72
I1
aI1200
aI100
ag2
aI01
aa(lp73
I1
aI0
aI150
ag2
aI01
aa(lp74
I0
aI50
aI150
ag31
aI00
aa(lp75
I0
aI100
aI150
ag31
aI00
aa(lp76
I0
aI150
aI150
ag31
aI00
aa(lp77
I0
aI200
aI150
ag31
aI00
aa(lp78
I0
aI250
aI150
ag31
aI00
aa(lp79
I0
aI300
aI150
ag31
aI00
aa(lp80
I0
aI350
aI150
ag31
aI00
aa(lp81
I0
aI400
aI150
ag31
aI00
aa(lp82
I0
aI450
aI150
ag31
aI00
aa(lp83
I0
aI650
aI150
ag31
aI00
aa(lp84
I0
aI700
aI150
ag31
aI00
aa(lp85
I0
aI750
aI150
ag31
aI00
aa(lp86
I0
aI800
aI150
ag31
aI00
aa(lp87
I0
aI850
aI150
ag31
aI00
aa(lp88
I0
aI900
aI150
ag31
aI00
aa(lp89
I0
aI950
aI150
ag31
aI00
aa(lp90
I0
aI1000
aI150
ag31
aI00
aa(lp91
I0
aI1150
aI150
ag31
aI00
aa(lp92
I1
aI1200
aI150
ag2
aI01
aa(lp93
I1
aI0
aI200
ag2
aI01
aa(lp94
I0
aI50
aI200
ag31
aI00
aa(lp95
I0
aI100
aI200
ag31
aI00
aa(lp96
I0
aI150
aI200
ag31
aI00
aa(lp97
I0
aI200
aI200
ag31
aI00
aa(lp98
I0
aI250
aI200
ag31
aI00
aa(lp99
I0
aI300
aI200
ag31
aI00
aa(lp100
I0
aI350
aI200
ag31
aI00
aa(lp101
I0
aI750
aI200
ag31
aI00
aa(lp102
I0
aI800
aI200
ag31
aI00
aa(lp103
I0
aI850
aI200
ag31
aI00
aa(lp104
I0
aI900
aI200
ag31
aI00
aa(lp105
I0
aI950
aI200
ag31
aI00
aa(lp106
I0
aI1000
aI200
ag31
aI00
aa(lp107
I0
aI1050
aI200
ag31
aI00
aa(lp108
I0
aI1150
aI200
ag31
aI00
aa(lp109
I1
aI1200
aI200
ag2
aI01
aa(lp110
I1
aI0
aI250
ag2
aI01
aa(lp111
I0
aI50
aI250
ag31
aI00
aa(lp112
I0
aI100
aI250
ag31
aI00
aa(lp113
I0
aI150
aI250
ag31
aI00
aa(lp114
I0
aI200
aI250
ag31
aI00
aa(lp115
I0
aI250
aI250
ag31
aI00
aa(lp116
I0
aI300
aI250
ag31
aI00
aa(lp117
I0
aI350
aI250
ag31
aI00
aa(lp118
I0
aI400
aI250
ag31
aI00
aa(lp119
I0
aI450
aI250
ag31
aI00
aa(lp120
I0
aI500
aI250
ag31
aI00
aa(lp121
I0
aI550
aI250
ag31
aI00
aa(lp122
I0
aI800
aI250
ag31
aI00
aa(lp123
I0
aI850
aI250
ag31
aI00
aa(lp124
I0
aI900
aI250
ag31
aI00
aa(lp125
I0
aI950
aI250
ag31
aI00
aa(lp126
I0
aI1000
aI250
ag31
aI00
aa(lp127
I0
aI1050
aI250
ag31
aI00
aa(lp128
I1
aI1200
aI250
ag2
aI01
aa(lp129
I1
aI0
aI300
ag2
aI01
aa(lp130
I0
aI50
aI300
ag31
aI00
aa(lp131
I0
aI100
aI300
ag31
aI00
aa(lp132
I0
aI150
aI300
ag31
aI00
aa(lp133
I0
aI200
aI300
ag31
aI00
aa(lp134
I0
aI250
aI300
ag31
aI00
aa(lp135
I0
aI300
aI300
ag31
aI00
aa(lp136
I0
aI350
aI300
ag31
aI00
aa(lp137
I0
aI400
aI300
ag31
aI00
aa(lp138
I0
aI450
aI300
ag31
aI00
aa(lp139
I0
aI500
aI300
ag31
aI00
aa(lp140
I0
aI550
aI300
ag31
aI00
aa(lp141
I0
aI600
aI300
ag31
aI00
aa(lp142
I0
aI650
aI300
ag31
aI00
aa(lp143
I0
aI850
aI300
ag31
aI00
aa(lp144
I0
aI950
aI300
ag31
aI00
aa(lp145
I0
aI1000
aI300
ag31
aI00
aa(lp146
I0
aI1050
aI300
ag31
aI00
aa(lp147
I0
aI1100
aI300
ag31
aI00
aa(lp148
I1
aI1200
aI300
ag2
aI01
aa(lp149
I1
aI0
aI350
ag2
aI01
aa(lp150
I0
aI50
aI350
ag31
aI00
aa(lp151
I0
aI100
aI350
ag31
aI00
aa(lp152
I0
aI150
aI350
ag31
aI00
aa(lp153
I0
aI200
aI350
ag31
aI00
aa(lp154
I0
aI250
aI350
ag31
aI00
aa(lp155
I0
aI300
aI350
ag31
aI00
aa(lp156
I0
aI400
aI350
ag31
aI00
aa(lp157
I0
aI750
aI350
ag31
aI00
aa(lp158
I0
aI800
aI350
ag31
aI00
aa(lp159
I1
aI1200
aI350
ag2
aI01
aa(lp160
I1
aI0
aI400
ag2
aI01
aa(lp161
I0
aI50
aI400
ag31
aI00
aa(lp162
I0
aI100
aI400
ag31
aI00
aa(lp163
I0
aI150
aI400
ag31
aI00
aa(lp164
I0
aI200
aI400
ag31
aI00
aa(lp165
I0
aI250
aI400
ag31
aI00
aa(lp166
I0
aI300
aI400
ag31
aI00
aa(lp167
I0
aI350
aI400
ag31
aI00
aa(lp168
I0
aI400
aI400
ag31
aI00
aa(lp169
I0
aI450
aI400
ag31
aI00
aa(lp170
I0
aI500
aI400
ag31
aI00
aa(lp171
I0
aI550
aI400
ag31
aI00
aa(lp172
I0
aI600
aI400
ag31
aI00
aa(lp173
I0
aI850
aI400
ag31
aI00
aa(lp174
I0
aI900
aI400
ag31
aI00
aa(lp175
I0
aI950
aI400
ag31
aI00
aa(lp176
I0
aI1000
aI400
ag31
aI00
aa(lp177
I0
aI1050
aI400
ag31
aI00
aa(lp178
I0
aI1100
aI400
ag31
aI00
aa(lp179
I0
aI1150
aI400
ag31
aI00
aa(lp180
I1
aI1200
aI400
ag2
aI01
aa(lp181
I1
aI0
aI450
ag2
aI01
aa(lp182
I0
aI750
aI450
ag31
aI00
aa(lp183
I0
aI800
aI450
ag31
aI00
aa(lp184
I0
aI850
aI450
ag31
aI00
aa(lp185
I0
aI900
aI450
ag31
aI00
aa(lp186
I0
aI950
aI450
ag31
aI00
aa(lp187
I0
aI1000
aI450
ag31
aI00
aa(lp188
I0
aI1050
aI450
ag31
aI00
aa(lp189
I0
aI1100
aI450
ag31
aI00
aa(lp190
I0
aI1150
aI450
ag31
aI00
aa(lp191
I1
aI1200
aI450
ag2
aI01
aa(lp192
I1
aI0
aI500
ag2
aI01
aa(lp193
I0
aI50
aI500
ag31
aI00
aa(lp194
I0
aI100
aI500
ag31
aI00
aa(lp195
I0
aI150
aI500
ag31
aI00
aa(lp196
I0
aI200
aI500
ag31
aI00
aa(lp197
I0
aI500
aI500
ag31
aI00
aa(lp198
I0
aI550
aI500
ag31
aI00
aa(lp199
I0
aI750
aI500
ag31
aI00
aa(lp200
I0
aI800
aI500
ag31
aI00
aa(lp201
I0
aI850
aI500
ag31
aI00
aa(lp202
I0
aI900
aI500
ag31
aI00
aa(lp203
I0
aI950
aI500
ag31
aI00
aa(lp204
I0
aI1000
aI500
ag31
aI00
aa(lp205
I0
aI1050
aI500
ag31
aI00
aa(lp206
I0
aI1100
aI500
ag31
aI00
aa(lp207
I0
aI1150
aI500
ag31
aI00
aa(lp208
I1
aI1200
aI500
ag2
aI01
aa(lp209
I1
aI0
aI550
ag2
aI01
aa(lp210
I0
aI50
aI550
ag31
aI00
aa(lp211
I0
aI100
aI550
ag31
aI00
aa(lp212
I0
aI150
aI550
ag31
aI00
aa(lp213
I0
aI200
aI550
ag31
aI00
aa(lp214
I0
aI250
aI550
ag31
aI00
aa(lp215
I0
aI400
aI550
ag31
aI00
aa(lp216
I0
aI500
aI550
ag31
aI00
aa(lp217
I0
aI550
aI550
ag31
aI00
aa(lp218
I0
aI750
aI550
ag31
aI00
aa(lp219
I0
aI800
aI550
ag31
aI00
aa(lp220
I0
aI850
aI550
ag31
aI00
aa(lp221
I0
aI900
aI550
ag31
aI00
aa(lp222
I0
aI950
aI550
ag31
aI00
aa(lp223
I0
aI1000
aI550
ag31
aI00
aa(lp224
I0
aI1050
aI550
ag31
aI00
aa(lp225
I0
aI1100
aI550
ag31
aI00
aa(lp226
I0
aI1150
aI550
ag31
aI00
aa(lp227
I1
aI1200
aI550
ag2
aI01
aa(lp228
I1
aI0
aI600
ag2
aI01
aa(lp229
I0
aI50
aI600
ag31
aI00
aa(lp230
I0
aI100
aI600
ag31
aI00
aa(lp231
I0
aI150
aI600
ag31
aI00
aa(lp232
I0
aI200
aI600
ag31
aI00
aa(lp233
I0
aI250
aI600
ag31
aI00
aa(lp234
I0
aI300
aI600
ag31
aI00
aa(lp235
I0
aI400
aI600
ag31
aI00
aa(lp236
I0
aI500
aI600
ag31
aI00
aa(lp237
I0
aI550
aI600
ag31
aI00
aa(lp238
I0
aI750
aI600
ag31
aI00
aa(lp239
I0
aI800
aI600
ag31
aI00
aa(lp240
I0
aI850
aI600
ag31
aI00
aa(lp241
I0
aI900
aI600
ag31
aI00
aa(lp242
I0
aI950
aI600
ag31
aI00
aa(lp243
I0
aI1000
aI600
ag31
aI00
aa(lp244
I0
aI1050
aI600
ag31
aI00
aa(lp245
I0
aI1100
aI600
ag31
aI00
aa(lp246
I0
aI1150
aI600
ag31
aI00
aa(lp247
I1
aI1200
aI600
ag2
aI01
aa(lp248
I1
aI0
aI650
ag2
aI01
aa(lp249
I0
aI50
aI650
ag31
aI00
aa(lp250
I0
aI100
aI650
ag31
aI00
aa(lp251
I0
aI150
aI650
ag31
aI00
aa(lp252
I0
aI200
aI650
ag31
aI00
aa(lp253
I0
aI250
aI650
ag31
aI00
aa(lp254
I0
aI500
aI650
ag31
aI00
aa(lp255
I0
aI550
aI650
ag31
aI00
aa(lp256
I0
aI650
aI650
ag31
aI00
aa(lp257
I0
aI750
aI650
ag31
aI00
aa(lp258
I0
aI800
aI650
ag31
aI00
aa(lp259
I0
aI850
aI650
ag31
aI00
aa(lp260
I0
aI900
aI650
ag31
aI00
aa(lp261
I0
aI950
aI650
ag31
aI00
aa(lp262
I0
aI1000
aI650
ag31
aI00
aa(lp263
I0
aI1050
aI650
ag31
aI00
aa(lp264
I0
aI1100
aI650
ag31
aI00
aa(lp265
I0
aI1150
aI650
ag31
aI00
aa(lp266
I1
aI1200
aI650
ag2
aI01
aa(lp267
I1
aI0
aI700
ag2
aI01
aa(lp268
I0
aI50
aI700
ag31
aI00
aa(lp269
I0
aI100
aI700
ag31
aI00
aa(lp270
I0
aI150
aI700
ag31
aI00
aa(lp271
I0
aI200
aI700
ag31
aI00
aa(lp272
I0
aI250
aI700
ag31
aI00
aa(lp273
I0
aI450
aI700
ag31
aI00
aa(lp274
I0
aI500
aI700
ag31
aI00
aa(lp275
I0
aI550
aI700
ag31
aI00
aa(lp276
I0
aI650
aI700
ag31
aI00
aa(lp277
I0
aI700
aI700
ag31
aI00
aa(lp278
I0
aI750
aI700
ag31
aI00
aa(lp279
I0
aI800
aI700
ag31
aI00
aa(lp280
I0
aI850
aI700
ag31
aI00
aa(lp281
I0
aI900
aI700
ag31
aI00
aa(lp282
I0
aI950
aI700
ag31
aI00
aa(lp283
I0
aI1000
aI700
ag31
aI00
aa(lp284
I0
aI1050
aI700
ag31
aI00
aa(lp285
I0
aI1100
aI700
ag31
aI00
aa(lp286
I0
aI1150
aI700
ag31
aI00
aa(lp287
I1
aI1200
aI700
ag2
aI01
aa(lp288
I1
aI0
aI750
ag2
aI01
aa(lp289
I1
aI50
aI750
ag2
aI01
aa(lp290
I1
aI100
aI750
ag2
aI01
aa(lp291
I1
aI150
aI750
ag2
aI01
aa(lp292
I1
aI200
aI750
ag2
aI01
aa(lp293
I1
aI250
aI750
ag2
aI01
aa(lp294
I1
aI300
aI750
ag2
aI01
aa(lp295
I1
aI350
aI750
ag2
aI01
aa(lp296
I1
aI400
aI750
ag2
aI01
aa(lp297
I1
aI450
aI750
ag2
aI01
aa(lp298
I1
aI500
aI750
ag2
aI01
aa(lp299
I1
aI550
aI750
ag2
aI01
aa(lp300
I1
aI650
aI750
ag2
aI01
aa(lp301
I1
aI700
aI750
ag2
aI01
aa(lp302
I1
aI750
aI750
ag2
aI01
aa(lp303
I1
aI800
aI750
ag2
aI01
aa(lp304
I1
aI850
aI750
ag2
aI01
aa(lp305
I1
aI900
aI750
ag2
aI01
aa(lp306
I1
aI950
aI750
ag2
aI01
aa(lp307
I1
aI1000
aI750
ag2
aI01
aa(lp308
I1
aI1050
aI750
ag2
aI01
aa(lp309
I1
aI1100
aI750
ag2
aI01
aa(lp310
I1
aI1150
aI750
ag2
aI01
aa(lp311
I1
aI1200
aI750
ag2
aI01
aa(lp312
I0
aI400
aI200
ag31
aI00
aa(lp313
I0
aI450
aI200
ag31
aI00
aa(lp314
I0
aI600
aI150
ag31
aI00
aa(lp315
I0
aI700
aI200
ag31
aI00
aa(lp316
I0
aI650
aI200
ag31
aI00
aa(lp317
I0
aI600
aI200
ag31
aI00
aa(lp318
I0
aI500
aI200
ag31
aI00
aa(lp319
I0
aI550
aI200
ag31
aI00
aa(lp320
I0
aI600
aI250
ag31
aI00
aa(lp321
I0
aI650
aI250
ag31
aI00
aa(lp322
I0
aI700
aI250
ag31
aI00
aa(lp323
I0
aI750
aI250
ag31
aI00
aa(lp324
I0
aI750
aI300
ag31
aI00
aa(lp325
I0
aI700
aI300
ag31
aI00
aa(lp326
I0
aI700
aI350
ag31
aI00
aa(lp327
I0
aI800
aI400
ag31
aI00
aa(lp328
I0
aI750
aI400
ag31
aI00
aa(lp329
I0
aI650
aI350
ag31
aI00
aa(lp330
I0
aI600
aI350
ag31
aI00
aa(lp331
I0
aI500
aI350
ag31
aI00
aa(lp332
I0
aI450
aI350
ag31
aI00
aa(lp333
I0
aI350
aI350
ag31
aI00
aa(lp334
I1
aI600
aI750
ag2
aI01
aa(lp335
I0
aI650
aI400
ag31
aI00
aa(lp336
I0
aI650
aI450
ag31
aI00
aa(lp337
I0
aI650
aI500
ag31
aI00
aa(lp338
I0
aI700
aI650
ag31
aI00
aa(lp339
I0
aI700
aI600
ag31
aI00
aa(lp340
I0
aI700
aI550
ag31
aI00
aa(lp341
I0
aI700
aI400
ag31
aI00
aa(lp342
I0
aI700
aI450
ag31
aI00
aa(lp343
I0
aI700
aI500
ag31
aI00
aa(lp344
I0
aI650
aI550
ag31
aI00
aa(lp345
I0
aI650
aI600
ag31
aI00
aa(lp346
I0
aI600
aI700
ag31
aI00
aa(lp347
I0
aI600
aI650
ag31
aI00
aa(lp348
I0
aI600
aI600
ag31
aI00
aa(lp349
I0
aI600
aI550
ag31
aI00
aa(lp350
I0
aI600
aI500
ag31
aI00
aa(lp351
I0
aI600
aI450
ag31
aI00
aa(lp352
I0
aI300
aI450
ag31
aI00
aa(lp353
I0
aI550
aI450
ag31
aI00
aa(lp354
I0
aI500
aI450
ag31
aI00
aa(lp355
I0
aI450
aI450
ag31
aI00
aa(lp356
I0
aI400
aI450
ag31
aI00
aa(lp357
I0
aI350
aI450
ag31
aI00
aa(lp358
I0
aI350
aI500
ag31
aI00
aa(lp359
I0
aI450
aI500
ag31
aI00
aa(lp360
I0
aI450
aI550
ag31
aI00
aa(lp361
I0
aI450
aI600
ag31
aI00
aa(lp362
I0
aI450
aI650
ag31
aI00
aa(lp363
I0
aI400
aI700
ag31
aI00
aa(lp364
I0
aI400
aI650
ag31
aI00
aa(lp365
I0
aI350
aI700
ag31
aI00
aa(lp366
I0
aI300
aI700
ag31
aI00
aa(lp367
I0
aI300
aI650
ag31
aI00
aa(lp368
I0
aI350
aI650
ag31
aI00
aa(lp369
I0
aI350
aI600
ag31
aI00
aa(lp370
I0
aI350
aI550
ag31
aI00
aa(lp371
I0
aI300
aI550
ag31
aI00
aa(lp372
I0
aI300
aI500
ag31
aI00
aa(lp373
I0
aI250
aI500
ag31
aI00
aa(lp374
I0
aI250
aI450
ag31
aI00
aa(lp375
I0
aI200
aI450
ag31
aI00
aa(lp376
I0
aI150
aI450
ag31
aI00
aa(lp377
I0
aI100
aI450
ag31
aI00
aa(lp378
I0
aI50
aI450
ag31
aI00
aa(lp379
I0
aI800
aI300
ag31
aI00
aa(lp380
I0
aI900
aI300
ag31
aI00
aa(lp381
I0
aI850
aI350
ag31
aI00
aa(lp382
I0
aI900
aI350
ag31
aI00
aa(lp383
I0
aI950
aI350
ag31
aI00
aa(lp384
I0
aI1000
aI350
ag31
aI00
aa(lp385
I0
aI1050
aI350
ag31
aI00
aa(lp386
I0
aI1100
aI350
ag31
aI00
aa(lp387
I0
aI1150
aI350
ag31
aI00
aa(lp388
I0
aI1150
aI300
ag31
aI00
aa(lp389
I0
aI1150
aI250
ag31
aI00
aa(lp390
I0
aI1100
aI250
ag31
aI00
aa(lp391
I0
aI1100
aI200
ag31
aI00
aa(lp392
I0
aI1100
aI150
ag31
aI00
aa(lp393
I0
aI1050
aI150
ag31
aI00
aa(lp394
I0
aI1050
aI100
ag31
aI00
aa(lp395
I0
aI1050
aI50
ag31
aI00
aa(lp396
I0
aI1000
aI50
ag31
aI00
aa(lp397
I0
aI1000
aI100
ag31
aI00
aa(lp398
I0
aI950
aI100
ag31
aI00
aa(lp399
I0
aI900
aI100
ag31
aI00
aa(lp400
I3
aI550
aI350
aS'stairsDown.png'
p401
aI00
aa(lp402
I0
aI500
aI150
ag31
aI00
aa(lp403
I0
aI550
aI150
ag31
aI00
aa(lp404
I1
aI400
aI500
ag2
aI01
aa.