(lp0
(lp1
I1
aI0
aI0
aS'wall.png'
p2
aI01
aa(lp3
I1
aI50
aI0
ag2
aI01
aa(lp4
I1
aI100
aI0
ag2
aI01
aa(lp5
I1
aI150
aI0
ag2
aI01
aa(lp6
I1
aI200
aI0
ag2
aI01
aa(lp7
I1
aI250
aI0
ag2
aI01
aa(lp8
I1
aI300
aI0
ag2
aI01
aa(lp9
I1
aI350
aI0
ag2
aI01
aa(lp10
I1
aI400
aI0
ag2
aI01
aa(lp11
I1
aI450
aI0
ag2
aI01
aa(lp12
I1
aI500
aI0
ag2
aI01
aa(lp13
I1
aI550
aI0
ag2
aI01
aa(lp14
I1
aI600
aI0
ag2
aI01
aa(lp15
I1
aI650
aI0
ag2
aI01
aa(lp16
I1
aI700
aI0
ag2
aI01
aa(lp17
I1
aI750
aI0
ag2
aI01
aa(lp18
I1
aI800
aI0
ag2
aI01
aa(lp19
I1
aI850
aI0
ag2
aI01
aa(lp20
I1
aI900
aI0
ag2
aI01
aa(lp21
I1
aI950
aI0
ag2
aI01
aa(lp22
I1
aI1000
aI0
ag2
aI01
aa(lp23
I1
aI0
aI50
ag2
aI01
aa(lp24
I3
aI50
aI50
aS'stairsDown.png'
p25
aI00
aa(lp26
I0
aI100
aI50
aS'sand.png'
p27
aI00
aa(lp28
I0
aI150
aI50
ag27
aI00
aa(lp29
I0
aI200
aI50
ag27
aI00
aa(lp30
I0
aI250
aI50
ag27
aI00
aa(lp31
I0
aI300
aI50
ag27
aI00
aa(lp32
I0
aI350
aI50
ag27
aI00
aa(lp33
I0
aI400
aI50
ag27
aI00
aa(lp34
I0
aI450
aI50
ag27
aI00
aa(lp35
I0
aI500
aI50
ag27
aI00
aa(lp36
I0
aI600
aI50
ag27
aI00
aa(lp37
I0
aI650
aI50
ag27
aI00
aa(lp38
I0
aI700
aI50
ag27
aI00
aa(lp39
I0
aI750
aI50
ag27
aI00
aa(lp40
I0
aI800
aI50
ag27
aI00
aa(lp41
I0
aI850
aI50
ag27
aI00
aa(lp42
I0
aI900
aI50
ag27
aI00
aa(lp43
I2
aI950
aI50
aS'stairsBroken.png'
p44
aI00
aa(lp45
I1
aI1000
aI50
ag2
aI01
aa(lp46
I1
aI0
aI100
ag2
aI01
aa(lp47
I1
aI50
aI100
ag2
aI01
aa(lp48
I1
aI100
aI100
ag2
aI01
aa(lp49
I1
aI150
aI100
ag2
aI01
aa(lp50
I1
aI200
aI100
ag2
aI01
aa(lp51
I1
aI250
aI100
ag2
aI01
aa(lp52
I1
aI300
aI100
ag2
aI01
aa(lp53
I1
aI350
aI100
ag2
aI01
aa(lp54
I1
aI700
aI100
ag2
aI01
aa(lp55
I1
aI750
aI100
ag2
aI01
aa(lp56
I1
aI800
aI100
ag2
aI01
aa(lp57
I1
aI850
aI100
ag2
aI01
aa(lp58
I1
aI900
aI100
ag2
aI01
aa(lp59
I1
aI950
aI100
ag2
aI01
aa(lp60
I1
aI1000
aI100
ag2
aI01
aa(lp61
I0
aI550
aI50
ag27
aI00
aa(lp62
I0
aI500
aI100
ag27
aI00
aa(lp63
I0
aI550
aI100
ag27
aI00
aa(lp64
I0
aI550
aI150
ag27
aI00
aa(lp65
I0
aI500
aI150
ag27
aI00
aa(lp66
I0
aI450
aI100
ag27
aI00
aa(lp67
I0
aI400
aI200
ag27
aI00
aa(lp68
I0
aI400
aI100
ag27
aI00
aa(lp69
I0
aI400
aI150
ag27
aI00
aa(lp70
I0
aI450
aI150
ag27
aI00
aa(lp71
I0
aI450
aI200
ag27
aI00
aa(lp72
I0
aI500
aI200
ag27
aI00
aa(lp73
I0
aI550
aI200
ag27
aI00
aa(lp74
I0
aI600
aI100
ag27
aI00
aa(lp75
I0
aI650
aI100
ag27
aI00
aa(lp76
I0
aI650
aI150
ag27
aI00
aa(lp77
I0
aI600
aI150
ag27
aI00
aa(lp78
I0
aI650
aI200
ag27
aI00
aa(lp79
I0
aI600
aI200
ag27
aI00
aa(lp80
I1
aI350
aI150
ag2
aI01
aa(lp81
I1
aI350
aI200
ag2
aI01
aa(lp82
I1
aI350
aI250
ag2
aI01
aa(lp83
I1
aI400
aI250
ag2
aI01
aa(lp84
I1
aI450
aI250
ag2
aI01
aa(lp85
I1
aI600
aI250
ag2
aI01
aa(lp86
I1
aI650
aI250
ag2
aI01
aa(lp87
I1
aI700
aI250
ag2
aI01
aa(lp88
I1
aI700
aI200
ag2
aI01
aa(lp89
I1
aI700
aI150
ag2
aI01
aa(lp90
I0
aI550
aI250
ag27
aI00
aa(lp91
I0
aI500
aI250
ag27
aI00
aa.