(lp0
ccopy_reg
_reconstructor
p1
(cMap
Blocks
p2
c__builtin__
object
p3
Ntp4
Rp5
(dp6
S'is_wall'
p7
I01
sS'hx'
p8
I0
sS'parent'
p9
NsS'onScreen'
p10
I01
sS'fx'
p11
I0
sS'img_file'
p12
S'img/wall.png'
p13
sS'pic'
p14
S'wall.png'
p15
sS'rect'
p16
cpygame
__rect_constructor
p17
(I0
I0
I50
I50
tp18
Rp19
sS'gx'
p20
I0
sS'location'
p21
(I0
I0
tp22
sS'image'
p23
NsS'ID'
p24
I1
sS'tile_y'
p25
I0
sS'tile_x'
p26
I0
sbag1
(g2
g3
Ntp27
Rp28
(dp29
g7
I01
sg8
I0
sg9
Nsg10
I01
sg11
I0
sg12
S'img/wall.png'
p30
sg14
g15
sg16
g17
(I50
I0
I50
I50
tp31
Rp32
sg20
I0
sg21
(I1
I0
tp33
sg23
Nsg24
I1
sg25
I0
sg26
I1
sbag1
(g2
g3
Ntp34
Rp35
(dp36
g7
I01
sg8
I0
sg9
Nsg10
I01
sg11
I0
sg12
S'img/wall.png'
p37
sg14
g15
sg16
g17
(I100
I0
I50
I50
tp38
Rp39
sg20
I0
sg21
(I2
I0
tp40
sg23
Nsg24
I1
sg25
I0
sg26
I2
sbag1
(g2
g3
Ntp41
Rp42
(dp43
g7
I01
sg8
I0
sg9
Nsg10
I01
sg11
I0
sg12
S'img/wall.png'
p44
sg14
g15
sg16
g17
(I150
I0
I50
I50
tp45
Rp46
sg20
I0
sg21
(I3
I0
tp47
sg23
Nsg24
I1
sg25
I0
sg26
I3
sbag1
(g2
g3
Ntp48
Rp49
(dp50
g7
I01
sg8
I0
sg9
Nsg10
I01
sg11
I0
sg12
S'img/wall.png'
p51
sg14
g15
sg16
g17
(I200
I0
I50
I50
tp52
Rp53
sg20
I0
sg21
(I4
I0
tp54
sg23
Nsg24
I1
sg25
I0
sg26
I4
sbag1
(g2
g3
Ntp55
Rp56
(dp57
g7
I01
sg8
I0
sg9
Nsg10
I01
sg11
I0
sg12
S'img/wall.png'
p58
sg14
g15
sg16
g17
(I250
I0
I50
I50
tp59
Rp60
sg20
I0
sg21
(I5
I0
tp61
sg23
Nsg24
I1
sg25
I0
sg26
I5
sbag1
(g2
g3
Ntp62
Rp63
(dp64
g7
I01
sg8
I0
sg9
Nsg10
I01
sg11
I0
sg12
S'img/wall.png'
p65
sg14
g15
sg16
g17
(I300
I0
I50
I50
tp66
Rp67
sg20
I0
sg21
(I6
I0
tp68
sg23
Nsg24
I1
sg25
I0
sg26
I6
sbag1
(g2
g3
Ntp69
Rp70
(dp71
g7
I01
sg8
I0
sg9
Nsg10
I01
sg11
I0
sg12
S'img/wall.png'
p72
sg14
g15
sg16
g17
(I350
I0
I50
I50
tp73
Rp74
sg20
I0
sg21
(I7
I0
tp75
sg23
Nsg24
I1
sg25
I0
sg26
I7
sbag1
(g2
g3
Ntp76
Rp77
(dp78
g7
I01
sg8
I0
sg9
Nsg10
I01
sg11
I0
sg12
S'img/wall.png'
p79
sg14
g15
sg16
g17
(I400
I0
I50
I50
tp80
Rp81
sg20
I0
sg21
(I8
I0
tp82
sg23
Nsg24
I1
sg25
I0
sg26
I8
sbag1
(g2
g3
Ntp83
Rp84
(dp85
g7
I01
sg8
I0
sg9
Nsg10
I01
sg11
I0
sg12
S'img/wall.png'
p86
sg14
g15
sg16
g17
(I450
I0
I50
I50
tp87
Rp88
sg20
I0
sg21
(I9
I0
tp89
sg23
Nsg24
I1
sg25
I0
sg26
I9
sbag1
(g2
g3
Ntp90
Rp91
(dp92
g7
I01
sg8
I0
sg9
Nsg10
I01
sg11
I0
sg12
S'img/wall.png'
p93
sg14
g15
sg16
g17
(I500
I0
I50
I50
tp94
Rp95
sg20
I0
sg21
(I10
I0
tp96
sg23
Nsg24
I1
sg25
I0
sg26
I10
sbag1
(g2
g3
Ntp97
Rp98
(dp99
g7
I01
sg8
I0
sg9
Nsg10
I01
sg11
I0
sg12
S'img/wall.png'
p100
sg14
g15
sg16
g17
(I550
I0
I50
I50
tp101
Rp102
sg20
I0
sg21
(I11
I0
tp103
sg23
Nsg24
I1
sg25
I0
sg26
I11
sbag1
(g2
g3
Ntp104
Rp105
(dp106
g7
I01
sg8
I0
sg9
Nsg10
I01
sg11
I0
sg12
S'img/wall.png'
p107
sg14
g15
sg16
g17
(I600
I0
I50
I50
tp108
Rp109
sg20
I0
sg21
(I12
I0
tp110
sg23
Nsg24
I1
sg25
I0
sg26
I12
sbag1
(g2
g3
Ntp111
Rp112
(dp113
g7
I01
sg8
I0
sg9
Nsg10
I01
sg11
I0
sg12
S'img/wall.png'
p114
sg14
g15
sg16
g17
(I650
I0
I50
I50
tp115
Rp116
sg20
I0
sg21
(I13
I0
tp117
sg23
Nsg24
I1
sg25
I0
sg26
I13
sbag1
(g2
g3
Ntp118
Rp119
(dp120
g7
I01
sg8
I0
sg9
Nsg10
I01
sg11
I0
sg12
S'img/wall.png'
p121
sg14
g15
sg16
g17
(I700
I0
I50
I50
tp122
Rp123
sg20
I0
sg21
(I14
I0
tp124
sg23
Nsg24
I1
sg25
I0
sg26
I14
sbag1
(g2
g3
Ntp125
Rp126
(dp127
g7
I01
sg8
I0
sg9
Nsg10
I01
sg11
I0
sg12
S'img/wall.png'
p128
sg14
g15
sg16
g17
(I750
I0
I50
I50
tp129
Rp130
sg20
I0
sg21
(I15
I0
tp131
sg23
Nsg24
I1
sg25
I0
sg26
I15
sbag1
(g2
g3
Ntp132
Rp133
(dp134
g7
I01
sg8
I0
sg9
Nsg10
I01
sg11
I0
sg12
S'img/wall.png'
p135
sg14
g15
sg16
g17
(I800
I0
I50
I50
tp136
Rp137
sg20
I0
sg21
(I16
I0
tp138
sg23
Nsg24
I1
sg25
I0
sg26
I16
sbag1
(g2
g3
Ntp139
Rp140
(dp141
g7
I01
sg8
I0
sg9
Nsg10
I00
sg11
I0
sg12
S'img/wall.png'
p142
sg14
g15
sg16
g17
(I850
I0
I50
I50
tp143
Rp144
sg20
I0
sg21
(I17
I0
tp145
sg23
Nsg24
I1
sg25
I0
sg26
I17
sbag1
(g2
g3
Ntp146
Rp147
(dp148
g7
I01
sg8
I0
sg9
Nsg10
I00
sg11
I0
sg12
S'img/wall.png'
p149
sg14
g15
sg16
g17
(I900
I0
I50
I50
tp150
Rp151
sg20
I0
sg21
(I18
I0
tp152
sg23
Nsg24
I1
sg25
I0
sg26
I18
sbag1
(g2
g3
Ntp153
Rp154
(dp155
g7
I01
sg8
I0
sg9
Nsg10
I00
sg11
I0
sg12
S'img/wall.png'
p156
sg14
g15
sg16
g17
(I950
I0
I50
I50
tp157
Rp158
sg20
I0
sg21
(I19
I0
tp159
sg23
Nsg24
I1
sg25
I0
sg26
I19
sbag1
(g2
g3
Ntp160
Rp161
(dp162
g7
I01
sg8
I0
sg9
Nsg10
I00
sg11
I0
sg12
S'img/wall.png'
p163
sg14
g15
sg16
g17
(I1000
I0
I50
I50
tp164
Rp165
sg20
I0
sg21
(I20
I0
tp166
sg23
Nsg24
I1
sg25
I0
sg26
I20
sbag1
(g2
g3
Ntp167
Rp168
(dp169
g7
I01
sg8
I0
sg9
Nsg10
I00
sg11
I0
sg12
S'img/wall.png'
p170
sg14
g15
sg16
g17
(I1050
I0
I50
I50
tp171
Rp172
sg20
I0
sg21
(I21
I0
tp173
sg23
Nsg24
I1
sg25
I0
sg26
I21
sbag1
(g2
g3
Ntp174
Rp175
(dp176
g7
I01
sg8
I0
sg9
Nsg10
I00
sg11
I0
sg12
S'img/wall.png'
p177
sg14
g15
sg16
g17
(I1100
I0
I50
I50
tp178
Rp179
sg20
I0
sg21
(I22
I0
tp180
sg23
Nsg24
I1
sg25
I0
sg26
I22
sbag1
(g2
g3
Ntp181
Rp182
(dp183
g7
I01
sg8
I0
sg9
Nsg10
I00
sg11
I0
sg12
S'img/wall.png'
p184
sg14
g15
sg16
g17
(I1150
I0
I50
I50
tp185
Rp186
sg20
I0
sg21
(I23
I0
tp187
sg23
Nsg24
I1
sg25
I0
sg26
I23
sbag1
(g2
g3
Ntp188
Rp189
(dp190
g7
I01
sg8
I0
sg9
Nsg10
I00
sg11
I0
sg12
S'img/wall.png'
p191
sg14
g15
sg16
g17
(I1200
I0
I50
I50
tp192
Rp193
sg20
I0
sg21
(I24
I0
tp194
sg23
Nsg24
I1
sg25
I0
sg26
I24
sbag1
(g2
g3
Ntp195
Rp196
(dp197
g7
I01
sg8
I0
sg9
Nsg10
I01
sg11
I0
sg12
S'img/wall.png'
p198
sg14
g15
sg16
g17
(I0
I50
I50
I50
tp199
Rp200
sg20
I0
sg21
(I0
I1
tp201
sg23
Nsg24
I1
sg25
I1
sg26
I0
sbag1
(g2
g3
Ntp202
Rp203
(dp204
g7
I00
sg8
I0
sg9
Nsg10
I01
sg11
I0
sg12
S'img/stairsBroken.png'
p205
sg14
S'stairsBroken.png'
p206
sg16
g17
(I50
I50
I50
I50
tp207
Rp208
sg20
I0
sg21
(I1
I1
tp209
sg23
Nsg24
I3
sg25
I1
sg26
I1
sbag1
(g2
g3
Ntp210
Rp211
(dp212
g7
I00
sg8
I0
sg9
Nsg10
I01
sg11
I0
sg12
S'img/sand.png'
p213
sg14
S'sand.png'
p214
sg16
g17
(I100
I50
I50
I50
tp215
Rp216
sg20
I0
sg21
(I2
I1
tp217
sg23
Nsg24
I0
sg25
I1
sg26
I2
sbag1
(g2
g3
Ntp218
Rp219
(dp220
g7
I00
sg8
I0
sg9
Nsg10
I01
sg11
I0
sg12
S'img/sand.png'
p221
sg14
g214
sg16
g17
(I150
I50
I50
I50
tp222
Rp223
sg20
I0
sg21
(I3
I1
tp224
sg23
Nsg24
I0
sg25
I1
sg26
I3
sbag1
(g2
g3
Ntp225
Rp226
(dp227
g7
I00
sg8
I0
sg9
Nsg10
I01
sg11
I0
sg12
S'img/sand.png'
p228
sg14
g214
sg16
g17
(I200
I50
I50
I50
tp229
Rp230
sg20
I0
sg21
(I4
I1
tp231
sg23
Nsg24
I0
sg25
I1
sg26
I4
sbag1
(g2
g3
Ntp232
Rp233
(dp234
g7
I00
sg8
I0
sg9
Nsg10
I01
sg11
I0
sg12
S'img/sand.png'
p235
sg14
g214
sg16
g17
(I250
I50
I50
I50
tp236
Rp237
sg20
I0
sg21
(I5
I1
tp238
sg23
Nsg24
I0
sg25
I1
sg26
I5
sbag1
(g2
g3
Ntp239
Rp240
(dp241
g7
I00
sg8
I0
sg9
Nsg10
I01
sg11
I0
sg12
S'img/sand.png'
p242
sg14
g214
sg16
g17
(I300
I50
I50
I50
tp243
Rp244
sg20
I0
sg21
(I6
I1
tp245
sg23
Nsg24
I0
sg25
I1
sg26
I6
sbag1
(g2
g3
Ntp246
Rp247
(dp248
g7
I00
sg8
I0
sg9
Nsg10
I01
sg11
I0
sg12
S'img/sand.png'
p249
sg14
g214
sg16
g17
(I350
I50
I50
I50
tp250
Rp251
sg20
I0
sg21
(I7
I1
tp252
sg23
Nsg24
I0
sg25
I1
sg26
I7
sbag1
(g2
g3
Ntp253
Rp254
(dp255
g7
I00
sg8
I0
sg9
Nsg10
I01
sg11
I0
sg12
S'img/sand.png'
p256
sg14
g214
sg16
g17
(I400
I50
I50
I50
tp257
Rp258
sg20
I0
sg21
(I8
I1
tp259
sg23
Nsg24
I0
sg25
I1
sg26
I8
sbag1
(g2
g3
Ntp260
Rp261
(dp262
g7
I00
sg8
I0
sg9
Nsg10
I01
sg11
I0
sg12
S'img/sand.png'
p263
sg14
g214
sg16
g17
(I450
I50
I50
I50
tp264
Rp265
sg20
I0
sg21
(I9
I1
tp266
sg23
Nsg24
I0
sg25
I1
sg26
I9
sbag1
(g2
g3
Ntp267
Rp268
(dp269
g7
I00
sg8
I0
sg9
Nsg10
I01
sg11
I0
sg12
S'img/sand.png'
p270
sg14
g214
sg16
g17
(I500
I50
I50
I50
tp271
Rp272
sg20
I0
sg21
(I10
I1
tp273
sg23
Nsg24
I0
sg25
I1
sg26
I10
sbag1
(g2
g3
Ntp274
Rp275
(dp276
g7
I00
sg8
I0
sg9
Nsg10
I01
sg11
I0
sg12
S'img/sand.png'
p277
sg14
g214
sg16
g17
(I550
I50
I50
I50
tp278
Rp279
sg20
I0
sg21
(I11
I1
tp280
sg23
Nsg24
I0
sg25
I1
sg26
I11
sbag1
(g2
g3
Ntp281
Rp282
(dp283
g7
I00
sg8
I0
sg9
Nsg10
I01
sg11
I0
sg12
S'img/sand.png'
p284
sg14
g214
sg16
g17
(I600
I50
I50
I50
tp285
Rp286
sg20
I0
sg21
(I12
I1
tp287
sg23
Nsg24
I0
sg25
I1
sg26
I12
sbag1
(g2
g3
Ntp288
Rp289
(dp290
g7
I00
sg8
I0
sg9
Nsg10
I01
sg11
I0
sg12
S'img/sand.png'
p291
sg14
g214
sg16
g17
(I650
I50
I50
I50
tp292
Rp293
sg20
I0
sg21
(I13
I1
tp294
sg23
Nsg24
I0
sg25
I1
sg26
I13
sbag1
(g2
g3
Ntp295
Rp296
(dp297
g7
I00
sg8
I0
sg9
Nsg10
I01
sg11
I0
sg12
S'img/sand.png'
p298
sg14
g214
sg16
g17
(I700
I50
I50
I50
tp299
Rp300
sg20
I0
sg21
(I14
I1
tp301
sg23
Nsg24
I0
sg25
I1
sg26
I14
sbag1
(g2
g3
Ntp302
Rp303
(dp304
g7
I00
sg8
I0
sg9
Nsg10
I01
sg11
I0
sg12
S'img/sand.png'
p305
sg14
g214
sg16
g17
(I750
I50
I50
I50
tp306
Rp307
sg20
I0
sg21
(I15
I1
tp308
sg23
Nsg24
I0
sg25
I1
sg26
I15
sbag1
(g2
g3
Ntp309
Rp310
(dp311
g7
I00
sg8
I0
sg9
Nsg10
I01
sg11
I0
sg12
S'img/sand.png'
p312
sg14
g214
sg16
g17
(I800
I50
I50
I50
tp313
Rp314
sg20
I0
sg21
(I16
I1
tp315
sg23
Nsg24
I0
sg25
I1
sg26
I16
sbag1
(g2
g3
Ntp316
Rp317
(dp318
g7
I00
sg8
I0
sg9
Nsg10
I00
sg11
I0
sg12
S'img/sand.png'
p319
sg14
g214
sg16
g17
(I850
I50
I50
I50
tp320
Rp321
sg20
I0
sg21
(I17
I1
tp322
sg23
Nsg24
I0
sg25
I1
sg26
I17
sbag1
(g2
g3
Ntp323
Rp324
(dp325
g7
I00
sg8
I0
sg9
Nsg10
I00
sg11
I0
sg12
S'img/sand.png'
p326
sg14
g214
sg16
g17
(I900
I50
I50
I50
tp327
Rp328
sg20
I0
sg21
(I18
I1
tp329
sg23
Nsg24
I0
sg25
I1
sg26
I18
sbag1
(g2
g3
Ntp330
Rp331
(dp332
g7
I00
sg8
I0
sg9
Nsg10
I00
sg11
I0
sg12
S'img/sand.png'
p333
sg14
g214
sg16
g17
(I950
I50
I50
I50
tp334
Rp335
sg20
I0
sg21
(I19
I1
tp336
sg23
Nsg24
I0
sg25
I1
sg26
I19
sbag1
(g2
g3
Ntp337
Rp338
(dp339
g7
I00
sg8
I0
sg9
Nsg10
I00
sg11
I0
sg12
S'img/sand.png'
p340
sg14
g214
sg16
g17
(I1000
I50
I50
I50
tp341
Rp342
sg20
I0
sg21
(I20
I1
tp343
sg23
Nsg24
I0
sg25
I1
sg26
I20
sbag1
(g2
g3
Ntp344
Rp345
(dp346
g7
I00
sg8
I0
sg9
Nsg10
I00
sg11
I0
sg12
S'img/sand.png'
p347
sg14
g214
sg16
g17
(I1050
I50
I50
I50
tp348
Rp349
sg20
I0
sg21
(I21
I1
tp350
sg23
Nsg24
I0
sg25
I1
sg26
I21
sbag1
(g2
g3
Ntp351
Rp352
(dp353
g7
I00
sg8
I0
sg9
Nsg10
I00
sg11
I0
sg12
S'img/sand.png'
p354
sg14
g214
sg16
g17
(I1100
I50
I50
I50
tp355
Rp356
sg20
I0
sg21
(I22
I1
tp357
sg23
Nsg24
I0
sg25
I1
sg26
I22
sbag1
(g2
g3
Ntp358
Rp359
(dp360
g7
I00
sg8
I0
sg9
Nsg10
I00
sg11
I0
sg12
S'img/sand.png'
p361
sg14
g214
sg16
g17
(I1150
I50
I50
I50
tp362
Rp363
sg20
I0
sg21
(I23
I1
tp364
sg23
Nsg24
I0
sg25
I1
sg26
I23
sbag1
(g2
g3
Ntp365
Rp366
(dp367
g7
I01
sg8
I0
sg9
Nsg10
I00
sg11
I0
sg12
S'img/wall.png'
p368
sg14
g15
sg16
g17
(I1200
I50
I50
I50
tp369
Rp370
sg20
I0
sg21
(I24
I1
tp371
sg23
Nsg24
I1
sg25
I1
sg26
I24
sbag1
(g2
g3
Ntp372
Rp373
(dp374
g7
I01
sg8
I0
sg9
Nsg10
I01
sg11
I0
sg12
S'img/wall.png'
p375
sg14
g15
sg16
g17
(I0
I100
I50
I50
tp376
Rp377
sg20
I0
sg21
(I0
I2
tp378
sg23
Nsg24
I1
sg25
I2
sg26
I0
sbag1
(g2
g3
Ntp379
Rp380
(dp381
g7
I00
sg8
I0
sg9
Nsg10
I01
sg11
I0
sg12
S'img/sand.png'
p382
sg14
g214
sg16
g17
(I50
I100
I50
I50
tp383
Rp384
sg20
I0
sg21
(I1
I2
tp385
sg23
Nsg24
I0
sg25
I2
sg26
I1
sbag1
(g2
g3
Ntp386
Rp387
(dp388
g7
I00
sg8
I0
sg9
Nsg10
I01
sg11
I0
sg12
S'img/sand.png'
p389
sg14
g214
sg16
g17
(I100
I100
I50
I50
tp390
Rp391
sg20
I0
sg21
(I2
I2
tp392
sg23
Nsg24
I0
sg25
I2
sg26
I2
sbag1
(g2
g3
Ntp393
Rp394
(dp395
g7
I00
sg8
I0
sg9
Nsg10
I01
sg11
I0
sg12
S'img/sand.png'
p396
sg14
g214
sg16
g17
(I150
I100
I50
I50
tp397
Rp398
sg20
I0
sg21
(I3
I2
tp399
sg23
Nsg24
I0
sg25
I2
sg26
I3
sbag1
(g2
g3
Ntp400
Rp401
(dp402
g7
I00
sg8
I0
sg9
Nsg10
I01
sg11
I0
sg12
S'img/sand.png'
p403
sg14
g214
sg16
g17
(I200
I100
I50
I50
tp404
Rp405
sg20
I0
sg21
(I4
I2
tp406
sg23
Nsg24
I0
sg25
I2
sg26
I4
sbag1
(g2
g3
Ntp407
Rp408
(dp409
g7
I00
sg8
I0
sg9
Nsg10
I01
sg11
I0
sg12
S'img/sand.png'
p410
sg14
g214
sg16
g17
(I250
I100
I50
I50
tp411
Rp412
sg20
I0
sg21
(I5
I2
tp413
sg23
Nsg24
I0
sg25
I2
sg26
I5
sbag1
(g2
g3
Ntp414
Rp415
(dp416
g7
I00
sg8
I0
sg9
Nsg10
I01
sg11
I0
sg12
S'img/sand.png'
p417
sg14
g214
sg16
g17
(I300
I100
I50
I50
tp418
Rp419
sg20
I0
sg21
(I6
I2
tp420
sg23
Nsg24
I0
sg25
I2
sg26
I6
sbag1
(g2
g3
Ntp421
Rp422
(dp423
g7
I00
sg8
I0
sg9
Nsg10
I01
sg11
I0
sg12
S'img/sand.png'
p424
sg14
g214
sg16
g17
(I350
I100
I50
I50
tp425
Rp426
sg20
I0
sg21
(I7
I2
tp427
sg23
Nsg24
I0
sg25
I2
sg26
I7
sbag1
(g2
g3
Ntp428
Rp429
(dp430
g7
I00
sg8
I0
sg9
Nsg10
I01
sg11
I0
sg12
S'img/sand.png'
p431
sg14
g214
sg16
g17
(I400
I100
I50
I50
tp432
Rp433
sg20
I0
sg21
(I8
I2
tp434
sg23
Nsg24
I0
sg25
I2
sg26
I8
sbag1
(g2
g3
Ntp435
Rp436
(dp437
g7
I00
sg8
I0
sg9
Nsg10
I01
sg11
I0
sg12
S'img/sand.png'
p438
sg14
g214
sg16
g17
(I450
I100
I50
I50
tp439
Rp440
sg20
I0
sg21
(I9
I2
tp441
sg23
Nsg24
I0
sg25
I2
sg26
I9
sbag1
(g2
g3
Ntp442
Rp443
(dp444
g7
I00
sg8
I0
sg9
Nsg10
I01
sg11
I0
sg12
S'img/sand.png'
p445
sg14
g214
sg16
g17
(I500
I100
I50
I50
tp446
Rp447
sg20
I0
sg21
(I10
I2
tp448
sg23
Nsg24
I0
sg25
I2
sg26
I10
sbag1
(g2
g3
Ntp449
Rp450
(dp451
g7
I00
sg8
I0
sg9
Nsg10
I01
sg11
I0
sg12
S'img/sand.png'
p452
sg14
g214
sg16
g17
(I550
I100
I50
I50
tp453
Rp454
sg20
I0
sg21
(I11
I2
tp455
sg23
Nsg24
I0
sg25
I2
sg26
I11
sbag1
(g2
g3
Ntp456
Rp457
(dp458
g7
I00
sg8
I0
sg9
Nsg10
I01
sg11
I0
sg12
S'img/sand.png'
p459
sg14
g214
sg16
g17
(I600
I100
I50
I50
tp460
Rp461
sg20
I0
sg21
(I12
I2
tp462
sg23
Nsg24
I0
sg25
I2
sg26
I12
sbag1
(g2
g3
Ntp463
Rp464
(dp465
g7
I00
sg8
I0
sg9
Nsg10
I01
sg11
I0
sg12
S'img/sand.png'
p466
sg14
g214
sg16
g17
(I650
I100
I50
I50
tp467
Rp468
sg20
I0
sg21
(I13
I2
tp469
sg23
Nsg24
I0
sg25
I2
sg26
I13
sbag1
(g2
g3
Ntp470
Rp471
(dp472
g7
I00
sg8
I0
sg9
Nsg10
I01
sg11
I0
sg12
S'img/sand.png'
p473
sg14
g214
sg16
g17
(I700
I100
I50
I50
tp474
Rp475
sg20
I0
sg21
(I14
I2
tp476
sg23
Nsg24
I0
sg25
I2
sg26
I14
sbag1
(g2
g3
Ntp477
Rp478
(dp479
g7
I00
sg8
I0
sg9
Nsg10
I01
sg11
I0
sg12
S'img/sand.png'
p480
sg14
g214
sg16
g17
(I750
I100
I50
I50
tp481
Rp482
sg20
I0
sg21
(I15
I2
tp483
sg23
Nsg24
I0
sg25
I2
sg26
I15
sbag1
(g2
g3
Ntp484
Rp485
(dp486
g7
I00
sg8
I0
sg9
Nsg10
I01
sg11
I0
sg12
S'img/sand.png'
p487
sg14
g214
sg16
g17
(I800
I100
I50
I50
tp488
Rp489
sg20
I0
sg21
(I16
I2
tp490
sg23
Nsg24
I0
sg25
I2
sg26
I16
sbag1
(g2
g3
Ntp491
Rp492
(dp493
g7
I00
sg8
I0
sg9
Nsg10
I00
sg11
I0
sg12
S'img/sand.png'
p494
sg14
g214
sg16
g17
(I850
I100
I50
I50
tp495
Rp496
sg20
I0
sg21
(I17
I2
tp497
sg23
Nsg24
I0
sg25
I2
sg26
I17
sbag1
(g2
g3
Ntp498
Rp499
(dp500
g7
I00
sg8
I0
sg9
Nsg10
I00
sg11
I0
sg12
S'img/sand.png'
p501
sg14
g214
sg16
g17
(I900
I100
I50
I50
tp502
Rp503
sg20
I0
sg21
(I18
I2
tp504
sg23
Nsg24
I0
sg25
I2
sg26
I18
sbag1
(g2
g3
Ntp505
Rp506
(dp507
g7
I01
sg8
I0
sg9
Nsg10
I00
sg11
I0
sg12
S'img/wall.png'
p508
sg14
g15
sg16
g17
(I950
I100
I50
I50
tp509
Rp510
sg20
I0
sg21
(I19
I2
tp511
sg23
Nsg24
I1
sg25
I2
sg26
I19
sbag1
(g2
g3
Ntp512
Rp513
(dp514
g7
I01
sg8
I0
sg9
Nsg10
I00
sg11
I0
sg12
S'img/wall.png'
p515
sg14
g15
sg16
g17
(I1000
I100
I50
I50
tp516
Rp517
sg20
I0
sg21
(I20
I2
tp518
sg23
Nsg24
I1
sg25
I2
sg26
I20
sbag1
(g2
g3
Ntp519
Rp520
(dp521
g7
I01
sg8
I0
sg9
Nsg10
I00
sg11
I0
sg12
S'img/wall.png'
p522
sg14
g15
sg16
g17
(I1050
I100
I50
I50
tp523
Rp524
sg20
I0
sg21
(I21
I2
tp525
sg23
Nsg24
I1
sg25
I2
sg26
I21
sbag1
(g2
g3
Ntp526
Rp527
(dp528
g7
I00
sg8
I0
sg9
Nsg10
I00
sg11
I0
sg12
S'img/sand.png'
p529
sg14
g214
sg16
g17
(I1100
I100
I50
I50
tp530
Rp531
sg20
I0
sg21
(I22
I2
tp532
sg23
Nsg24
I0
sg25
I2
sg26
I22
sbag1
(g2
g3
Ntp533
Rp534
(dp535
g7
I00
sg8
I0
sg9
Nsg10
I00
sg11
I0
sg12
S'img/sand.png'
p536
sg14
g214
sg16
g17
(I1150
I100
I50
I50
tp537
Rp538
sg20
I0
sg21
(I23
I2
tp539
sg23
Nsg24
I0
sg25
I2
sg26
I23
sbag1
(g2
g3
Ntp540
Rp541
(dp542
g7
I01
sg8
I0
sg9
Nsg10
I00
sg11
I0
sg12
S'img/wall.png'
p543
sg14
g15
sg16
g17
(I1200
I100
I50
I50
tp544
Rp545
sg20
I0
sg21
(I24
I2
tp546
sg23
Nsg24
I1
sg25
I2
sg26
I24
sbag1
(g2
g3
Ntp547
Rp548
(dp549
g7
I01
sg8
I0
sg9
Nsg10
I01
sg11
I0
sg12
S'img/wall.png'
p550
sg14
g15
sg16
g17
(I0
I150
I50
I50
tp551
Rp552
sg20
I0
sg21
(I0
I3
tp553
sg23
Nsg24
I1
sg25
I3
sg26
I0
sbag1
(g2
g3
Ntp554
Rp555
(dp556
g7
I00
sg8
I0
sg9
Nsg10
I01
sg11
I0
sg12
S'img/sand.png'
p557
sg14
g214
sg16
g17
(I50
I150
I50
I50
tp558
Rp559
sg20
I0
sg21
(I1
I3
tp560
sg23
Nsg24
I0
sg25
I3
sg26
I1
sbag1
(g2
g3
Ntp561
Rp562
(dp563
g7
I00
sg8
I0
sg9
Nsg10
I01
sg11
I0
sg12
S'img/sand.png'
p564
sg14
g214
sg16
g17
(I100
I150
I50
I50
tp565
Rp566
sg20
I0
sg21
(I2
I3
tp567
sg23
Nsg24
I0
sg25
I3
sg26
I2
sbag1
(g2
g3
Ntp568
Rp569
(dp570
g7
I00
sg8
I0
sg9
Nsg10
I01
sg11
I0
sg12
S'img/sand.png'
p571
sg14
g214
sg16
g17
(I150
I150
I50
I50
tp572
Rp573
sg20
I0
sg21
(I3
I3
tp574
sg23
Nsg24
I0
sg25
I3
sg26
I3
sbag1
(g2
g3
Ntp575
Rp576
(dp577
g7
I00
sg8
I0
sg9
Nsg10
I01
sg11
I0
sg12
S'img/sand.png'
p578
sg14
g214
sg16
g17
(I500
I150
I50
I50
tp579
Rp580
sg20
I0
sg21
(I10
I3
tp581
sg23
Nsg24
I0
sg25
I3
sg26
I10
sbag1
(g2
g3
Ntp582
Rp583
(dp584
g7
I00
sg8
I0
sg9
Nsg10
I01
sg11
I0
sg12
S'img/sand.png'
p585
sg14
g214
sg16
g17
(I550
I150
I50
I50
tp586
Rp587
sg20
I0
sg21
(I11
I3
tp588
sg23
Nsg24
I0
sg25
I3
sg26
I11
sbag1
(g2
g3
Ntp589
Rp590
(dp591
g7
I00
sg8
I0
sg9
Nsg10
I01
sg11
I0
sg12
S'img/sand.png'
p592
sg14
g214
sg16
g17
(I600
I150
I50
I50
tp593
Rp594
sg20
I0
sg21
(I12
I3
tp595
sg23
Nsg24
I0
sg25
I3
sg26
I12
sbag1
(g2
g3
Ntp596
Rp597
(dp598
g7
I00
sg8
I0
sg9
Nsg10
I01
sg11
I0
sg12
S'img/sand.png'
p599
sg14
g214
sg16
g17
(I650
I150
I50
I50
tp600
Rp601
sg20
I0
sg21
(I13
I3
tp602
sg23
Nsg24
I0
sg25
I3
sg26
I13
sbag1
(g2
g3
Ntp603
Rp604
(dp605
g7
I00
sg8
I0
sg9
Nsg10
I01
sg11
I0
sg12
S'img/sand.png'
p606
sg14
g214
sg16
g17
(I700
I150
I50
I50
tp607
Rp608
sg20
I0
sg21
(I14
I3
tp609
sg23
Nsg24
I0
sg25
I3
sg26
I14
sbag1
(g2
g3
Ntp610
Rp611
(dp612
g7
I00
sg8
I0
sg9
Nsg10
I01
sg11
I0
sg12
S'img/sand.png'
p613
sg14
g214
sg16
g17
(I750
I150
I50
I50
tp614
Rp615
sg20
I0
sg21
(I15
I3
tp616
sg23
Nsg24
I0
sg25
I3
sg26
I15
sbag1
(g2
g3
Ntp617
Rp618
(dp619
g7
I00
sg8
I0
sg9
Nsg10
I01
sg11
I0
sg12
S'img/sand.png'
p620
sg14
g214
sg16
g17
(I800
I150
I50
I50
tp621
Rp622
sg20
I0
sg21
(I16
I3
tp623
sg23
Nsg24
I0
sg25
I3
sg26
I16
sbag1
(g2
g3
Ntp624
Rp625
(dp626
g7
I00
sg8
I0
sg9
Nsg10
I00
sg11
I0
sg12
S'img/sand.png'
p627
sg14
g214
sg16
g17
(I850
I150
I50
I50
tp628
Rp629
sg20
I0
sg21
(I17
I3
tp630
sg23
Nsg24
I0
sg25
I3
sg26
I17
sbag1
(g2
g3
Ntp631
Rp632
(dp633
g7
I00
sg8
I0
sg9
Nsg10
I00
sg11
I0
sg12
S'img/sand.png'
p634
sg14
g214
sg16
g17
(I900
I150
I50
I50
tp635
Rp636
sg20
I0
sg21
(I18
I3
tp637
sg23
Nsg24
I0
sg25
I3
sg26
I18
sbag1
(g2
g3
Ntp638
Rp639
(dp640
g7
I00
sg8
I0
sg9
Nsg10
I00
sg11
I0
sg12
S'img/sand.png'
p641
sg14
g214
sg16
g17
(I950
I150
I50
I50
tp642
Rp643
sg20
I0
sg21
(I19
I3
tp644
sg23
Nsg24
I0
sg25
I3
sg26
I19
sbag1
(g2
g3
Ntp645
Rp646
(dp647
g7
I00
sg8
I0
sg9
Nsg10
I00
sg11
I0
sg12
S'img/sand.png'
p648
sg14
g214
sg16
g17
(I1000
I150
I50
I50
tp649
Rp650
sg20
I0
sg21
(I20
I3
tp651
sg23
Nsg24
I0
sg25
I3
sg26
I20
sbag1
(g2
g3
Ntp652
Rp653
(dp654
g7
I00
sg8
I0
sg9
Nsg10
I00
sg11
I0
sg12
S'img/sand.png'
p655
sg14
g214
sg16
g17
(I1050
I150
I50
I50
tp656
Rp657
sg20
I0
sg21
(I21
I3
tp658
sg23
Nsg24
I0
sg25
I3
sg26
I21
sbag1
(g2
g3
Ntp659
Rp660
(dp661
g7
I00
sg8
I0
sg9
Nsg10
I00
sg11
I0
sg12
S'img/sand.png'
p662
sg14
g214
sg16
g17
(I1100
I150
I50
I50
tp663
Rp664
sg20
I0
sg21
(I22
I3
tp665
sg23
Nsg24
I0
sg25
I3
sg26
I22
sbag1
(g2
g3
Ntp666
Rp667
(dp668
g7
I00
sg8
I0
sg9
Nsg10
I00
sg11
I0
sg12
S'img/sand.png'
p669
sg14
g214
sg16
g17
(I1150
I150
I50
I50
tp670
Rp671
sg20
I0
sg21
(I23
I3
tp672
sg23
Nsg24
I0
sg25
I3
sg26
I23
sbag1
(g2
g3
Ntp673
Rp674
(dp675
g7
I01
sg8
I0
sg9
Nsg10
I00
sg11
I0
sg12
S'img/wall.png'
p676
sg14
g15
sg16
g17
(I1200
I150
I50
I50
tp677
Rp678
sg20
I0
sg21
(I24
I3
tp679
sg23
Nsg24
I1
sg25
I3
sg26
I24
sbag1
(g2
g3
Ntp680
Rp681
(dp682
g7
I01
sg8
I0
sg9
Nsg10
I01
sg11
I0
sg12
S'img/wall.png'
p683
sg14
g15
sg16
g17
(I0
I200
I50
I50
tp684
Rp685
sg20
I0
sg21
(I0
I4
tp686
sg23
Nsg24
I1
sg25
I4
sg26
I0
sbag1
(g2
g3
Ntp687
Rp688
(dp689
g7
I00
sg8
I0
sg9
Nsg10
I01
sg11
I0
sg12
S'img/sand.png'
p690
sg14
g214
sg16
g17
(I50
I200
I50
I50
tp691
Rp692
sg20
I0
sg21
(I1
I4
tp693
sg23
Nsg24
I0
sg25
I4
sg26
I1
sbag1
(g2
g3
Ntp694
Rp695
(dp696
g7
I00
sg8
I0
sg9
Nsg10
I01
sg11
I0
sg12
S'img/sand.png'
p697
sg14
g214
sg16
g17
(I100
I200
I50
I50
tp698
Rp699
sg20
I0
sg21
(I2
I4
tp700
sg23
Nsg24
I0
sg25
I4
sg26
I2
sbag1
(g2
g3
Ntp701
Rp702
(dp703
g7
I00
sg8
I0
sg9
Nsg10
I00
sg11
I0
sg12
S'img/sand.png'
p704
sg14
g214
sg16
g17
(I850
I200
I50
I50
tp705
Rp706
sg20
I0
sg21
(I17
I4
tp707
sg23
Nsg24
I0
sg25
I4
sg26
I17
sbag1
(g2
g3
Ntp708
Rp709
(dp710
g7
I00
sg8
I0
sg9
Nsg10
I00
sg11
I0
sg12
S'img/sand.png'
p711
sg14
g214
sg16
g17
(I900
I200
I50
I50
tp712
Rp713
sg20
I0
sg21
(I18
I4
tp714
sg23
Nsg24
I0
sg25
I4
sg26
I18
sbag1
(g2
g3
Ntp715
Rp716
(dp717
g7
I00
sg8
I0
sg9
Nsg10
I00
sg11
I0
sg12
S'img/sand.png'
p718
sg14
g214
sg16
g17
(I950
I200
I50
I50
tp719
Rp720
sg20
I0
sg21
(I19
I4
tp721
sg23
Nsg24
I0
sg25
I4
sg26
I19
sbag1
(g2
g3
Ntp722
Rp723
(dp724
g7
I00
sg8
I0
sg9
Nsg10
I00
sg11
I0
sg12
S'img/sand.png'
p725
sg14
g214
sg16
g17
(I1000
I200
I50
I50
tp726
Rp727
sg20
I0
sg21
(I20
I4
tp728
sg23
Nsg24
I0
sg25
I4
sg26
I20
sbag1
(g2
g3
Ntp729
Rp730
(dp731
g7
I00
sg8
I0
sg9
Nsg10
I00
sg11
I0
sg12
S'img/sand.png'
p732
sg14
g214
sg16
g17
(I1050
I200
I50
I50
tp733
Rp734
sg20
I0
sg21
(I21
I4
tp735
sg23
Nsg24
I0
sg25
I4
sg26
I21
sbag1
(g2
g3
Ntp736
Rp737
(dp738
g7
I00
sg8
I0
sg9
Nsg10
I00
sg11
I0
sg12
S'img/sand.png'
p739
sg14
g214
sg16
g17
(I1100
I200
I50
I50
tp740
Rp741
sg20
I0
sg21
(I22
I4
tp742
sg23
Nsg24
I0
sg25
I4
sg26
I22
sbag1
(g2
g3
Ntp743
Rp744
(dp745
g7
I00
sg8
I0
sg9
Nsg10
I00
sg11
I0
sg12
S'img/sand.png'
p746
sg14
g214
sg16
g17
(I1150
I200
I50
I50
tp747
Rp748
sg20
I0
sg21
(I23
I4
tp749
sg23
Nsg24
I0
sg25
I4
sg26
I23
sbag1
(g2
g3
Ntp750
Rp751
(dp752
g7
I01
sg8
I0
sg9
Nsg10
I00
sg11
I0
sg12
S'img/wall.png'
p753
sg14
g15
sg16
g17
(I1200
I200
I50
I50
tp754
Rp755
sg20
I0
sg21
(I24
I4
tp756
sg23
Nsg24
I1
sg25
I4
sg26
I24
sbag1
(g2
g3
Ntp757
Rp758
(dp759
g7
I01
sg8
I0
sg9
Nsg10
I01
sg11
I0
sg12
S'img/wall.png'
p760
sg14
g15
sg16
g17
(I0
I250
I50
I50
tp761
Rp762
sg20
I0
sg21
(I0
I5
tp763
sg23
Nsg24
I1
sg25
I5
sg26
I0
sbag1
(g2
g3
Ntp764
Rp765
(dp766
g7
I00
sg8
I0
sg9
Nsg10
I01
sg11
I0
sg12
S'img/sand.png'
p767
sg14
g214
sg16
g17
(I50
I250
I50
I50
tp768
Rp769
sg20
I0
sg21
(I1
I5
tp770
sg23
Nsg24
I0
sg25
I5
sg26
I1
sbag1
(g2
g3
Ntp771
Rp772
(dp773
g7
I00
sg8
I0
sg9
Nsg10
I01
sg11
I0
sg12
S'img/sand.png'
p774
sg14
g214
sg16
g17
(I100
I250
I50
I50
tp775
Rp776
sg20
I0
sg21
(I2
I5
tp777
sg23
Nsg24
I0
sg25
I5
sg26
I2
sbag1
(g2
g3
Ntp778
Rp779
(dp780
g7
I00
sg8
I0
sg9
Nsg10
I01
sg11
I0
sg12
S'img/sand.png'
p781
sg14
g214
sg16
g17
(I550
I250
I50
I50
tp782
Rp783
sg20
I0
sg21
(I11
I5
tp784
sg23
Nsg24
I0
sg25
I5
sg26
I11
sbag1
(g2
g3
Ntp785
Rp786
(dp787
g7
I00
sg8
I0
sg9
Nsg10
I01
sg11
I0
sg12
S'img/sand.png'
p788
sg14
g214
sg16
g17
(I650
I250
I50
I50
tp789
Rp790
sg20
I0
sg21
(I13
I5
tp791
sg23
Nsg24
I0
sg25
I5
sg26
I13
sbag1
(g2
g3
Ntp792
Rp793
(dp794
g7
I00
sg8
I0
sg9
Nsg10
I00
sg11
I0
sg12
S'img/sand.png'
p795
sg14
g214
sg16
g17
(I850
I250
I50
I50
tp796
Rp797
sg20
I0
sg21
(I17
I5
tp798
sg23
Nsg24
I0
sg25
I5
sg26
I17
sbag1
(g2
g3
Ntp799
Rp800
(dp801
g7
I00
sg8
I0
sg9
Nsg10
I00
sg11
I0
sg12
S'img/sand.png'
p802
sg14
g214
sg16
g17
(I900
I250
I50
I50
tp803
Rp804
sg20
I0
sg21
(I18
I5
tp805
sg23
Nsg24
I0
sg25
I5
sg26
I18
sbag1
(g2
g3
Ntp806
Rp807
(dp808
g7
I00
sg8
I0
sg9
Nsg10
I00
sg11
I0
sg12
S'img/sand.png'
p809
sg14
g214
sg16
g17
(I950
I250
I50
I50
tp810
Rp811
sg20
I0
sg21
(I19
I5
tp812
sg23
Nsg24
I0
sg25
I5
sg26
I19
sbag1
(g2
g3
Ntp813
Rp814
(dp815
g7
I00
sg8
I0
sg9
Nsg10
I00
sg11
I0
sg12
S'img/sand.png'
p816
sg14
g214
sg16
g17
(I1000
I250
I50
I50
tp817
Rp818
sg20
I0
sg21
(I20
I5
tp819
sg23
Nsg24
I0
sg25
I5
sg26
I20
sbag1
(g2
g3
Ntp820
Rp821
(dp822
g7
I00
sg8
I0
sg9
Nsg10
I00
sg11
I0
sg12
S'img/sand.png'
p823
sg14
g214
sg16
g17
(I1050
I250
I50
I50
tp824
Rp825
sg20
I0
sg21
(I21
I5
tp826
sg23
Nsg24
I0
sg25
I5
sg26
I21
sbag1
(g2
g3
Ntp827
Rp828
(dp829
g7
I00
sg8
I0
sg9
Nsg10
I00
sg11
I0
sg12
S'img/sand.png'
p830
sg14
g214
sg16
g17
(I1100
I250
I50
I50
tp831
Rp832
sg20
I0
sg21
(I22
I5
tp833
sg23
Nsg24
I0
sg25
I5
sg26
I22
sbag1
(g2
g3
Ntp834
Rp835
(dp836
g7
I00
sg8
I0
sg9
Nsg10
I00
sg11
I0
sg12
S'img/sand.png'
p837
sg14
g214
sg16
g17
(I1150
I250
I50
I50
tp838
Rp839
sg20
I0
sg21
(I23
I5
tp840
sg23
Nsg24
I0
sg25
I5
sg26
I23
sbag1
(g2
g3
Ntp841
Rp842
(dp843
g7
I01
sg8
I0
sg9
Nsg10
I00
sg11
I0
sg12
S'img/wall.png'
p844
sg14
g15
sg16
g17
(I1200
I250
I50
I50
tp845
Rp846
sg20
I0
sg21
(I24
I5
tp847
sg23
Nsg24
I1
sg25
I5
sg26
I24
sbag1
(g2
g3
Ntp848
Rp849
(dp850
g7
I01
sg8
I0
sg9
Nsg10
I01
sg11
I0
sg12
S'img/wall.png'
p851
sg14
g15
sg16
g17
(I0
I300
I50
I50
tp852
Rp853
sg20
I0
sg21
(I0
I6
tp854
sg23
Nsg24
I1
sg25
I6
sg26
I0
sbag1
(g2
g3
Ntp855
Rp856
(dp857
g7
I00
sg8
I0
sg9
Nsg10
I01
sg11
I0
sg12
S'img/sand.png'
p858
sg14
g214
sg16
g17
(I50
I300
I50
I50
tp859
Rp860
sg20
I0
sg21
(I1
I6
tp861
sg23
Nsg24
I0
sg25
I6
sg26
I1
sbag1
(g2
g3
Ntp862
Rp863
(dp864
g7
I00
sg8
I0
sg9
Nsg10
I01
sg11
I0
sg12
S'img/sand.png'
p865
sg14
g214
sg16
g17
(I100
I300
I50
I50
tp866
Rp867
sg20
I0
sg21
(I2
I6
tp868
sg23
Nsg24
I0
sg25
I6
sg26
I2
sbag1
(g2
g3
Ntp869
Rp870
(dp871
g7
I00
sg8
I0
sg9
Nsg10
I01
sg11
I0
sg12
S'img/sand.png'
p872
sg14
g214
sg16
g17
(I500
I300
I50
I50
tp873
Rp874
sg20
I0
sg21
(I10
I6
tp875
sg23
Nsg24
I0
sg25
I6
sg26
I10
sbag1
(g2
g3
Ntp876
Rp877
(dp878
g7
I00
sg8
I0
sg9
Nsg10
I01
sg11
I0
sg12
S'img/sand.png'
p879
sg14
g214
sg16
g17
(I550
I300
I50
I50
tp880
Rp881
sg20
I0
sg21
(I11
I6
tp882
sg23
Nsg24
I0
sg25
I6
sg26
I11
sbag1
(g2
g3
Ntp883
Rp884
(dp885
g7
I00
sg8
I0
sg9
Nsg10
I01
sg11
I0
sg12
S'img/sand.png'
p886
sg14
g214
sg16
g17
(I600
I300
I50
I50
tp887
Rp888
sg20
I0
sg21
(I12
I6
tp889
sg23
Nsg24
I0
sg25
I6
sg26
I12
sbag1
(g2
g3
Ntp890
Rp891
(dp892
g7
I00
sg8
I0
sg9
Nsg10
I01
sg11
I0
sg12
S'img/sand.png'
p893
sg14
g214
sg16
g17
(I650
I300
I50
I50
tp894
Rp895
sg20
I0
sg21
(I13
I6
tp896
sg23
Nsg24
I0
sg25
I6
sg26
I13
sbag1
(g2
g3
Ntp897
Rp898
(dp899
g7
I00
sg8
I0
sg9
Nsg10
I00
sg11
I0
sg12
S'img/sand.png'
p900
sg14
g214
sg16
g17
(I850
I300
I50
I50
tp901
Rp902
sg20
I0
sg21
(I17
I6
tp903
sg23
Nsg24
I0
sg25
I6
sg26
I17
sbag1
(g2
g3
Ntp904
Rp905
(dp906
g7
I00
sg8
I0
sg9
Nsg10
I00
sg11
I0
sg12
S'img/sand.png'
p907
sg14
g214
sg16
g17
(I900
I300
I50
I50
tp908
Rp909
sg20
I0
sg21
(I18
I6
tp910
sg23
Nsg24
I0
sg25
I6
sg26
I18
sbag1
(g2
g3
Ntp911
Rp912
(dp913
g7
I00
sg8
I0
sg9
Nsg10
I00
sg11
I0
sg12
S'img/sand.png'
p914
sg14
g214
sg16
g17
(I950
I300
I50
I50
tp915
Rp916
sg20
I0
sg21
(I19
I6
tp917
sg23
Nsg24
I0
sg25
I6
sg26
I19
sbag1
(g2
g3
Ntp918
Rp919
(dp920
g7
I00
sg8
I0
sg9
Nsg10
I00
sg11
I0
sg12
S'img/sand.png'
p921
sg14
g214
sg16
g17
(I1000
I300
I50
I50
tp922
Rp923
sg20
I0
sg21
(I20
I6
tp924
sg23
Nsg24
I0
sg25
I6
sg26
I20
sbag1
(g2
g3
Ntp925
Rp926
(dp927
g7
I00
sg8
I0
sg9
Nsg10
I00
sg11
I0
sg12
S'img/sand.png'
p928
sg14
g214
sg16
g17
(I1050
I300
I50
I50
tp929
Rp930
sg20
I0
sg21
(I21
I6
tp931
sg23
Nsg24
I0
sg25
I6
sg26
I21
sbag1
(g2
g3
Ntp932
Rp933
(dp934
g7
I00
sg8
I0
sg9
Nsg10
I00
sg11
I0
sg12
S'img/sand.png'
p935
sg14
g214
sg16
g17
(I1100
I300
I50
I50
tp936
Rp937
sg20
I0
sg21
(I22
I6
tp938
sg23
Nsg24
I0
sg25
I6
sg26
I22
sbag1
(g2
g3
Ntp939
Rp940
(dp941
g7
I00
sg8
I0
sg9
Nsg10
I00
sg11
I0
sg12
S'img/sand.png'
p942
sg14
g214
sg16
g17
(I1150
I300
I50
I50
tp943
Rp944
sg20
I0
sg21
(I23
I6
tp945
sg23
Nsg24
I0
sg25
I6
sg26
I23
sbag1
(g2
g3
Ntp946
Rp947
(dp948
g7
I01
sg8
I0
sg9
Nsg10
I00
sg11
I0
sg12
S'img/wall.png'
p949
sg14
g15
sg16
g17
(I1200
I300
I50
I50
tp950
Rp951
sg20
I0
sg21
(I24
I6
tp952
sg23
Nsg24
I1
sg25
I6
sg26
I24
sbag1
(g2
g3
Ntp953
Rp954
(dp955
g7
I01
sg8
I0
sg9
Nsg10
I01
sg11
I0
sg12
S'img/wall.png'
p956
sg14
g15
sg16
g17
(I0
I350
I50
I50
tp957
Rp958
sg20
I0
sg21
(I0
I7
tp959
sg23
Nsg24
I1
sg25
I7
sg26
I0
sbag1
(g2
g3
Ntp960
Rp961
(dp962
g7
I00
sg8
I0
sg9
Nsg10
I01
sg11
I0
sg12
S'img/sand.png'
p963
sg14
g214
sg16
g17
(I50
I350
I50
I50
tp964
Rp965
sg20
I0
sg21
(I1
I7
tp966
sg23
Nsg24
I0
sg25
I7
sg26
I1
sbag1
(g2
g3
Ntp967
Rp968
(dp969
g7
I00
sg8
I0
sg9
Nsg10
I01
sg11
I0
sg12
S'img/sand.png'
p970
sg14
g214
sg16
g17
(I100
I350
I50
I50
tp971
Rp972
sg20
I0
sg21
(I2
I7
tp973
sg23
Nsg24
I0
sg25
I7
sg26
I2
sbag1
(g2
g3
Ntp974
Rp975
(dp976
g7
I00
sg8
I0
sg9
Nsg10
I01
sg11
I0
sg12
S'img/sand.png'
p977
sg14
g214
sg16
g17
(I150
I350
I50
I50
tp978
Rp979
sg20
I0
sg21
(I3
I7
tp980
sg23
Nsg24
I0
sg25
I7
sg26
I3
sbag1
(g2
g3
Ntp981
Rp982
(dp983
g7
I00
sg8
I0
sg9
Nsg10
I01
sg11
I0
sg12
S'img/sand.png'
p984
sg14
g214
sg16
g17
(I200
I350
I50
I50
tp985
Rp986
sg20
I0
sg21
(I4
I7
tp987
sg23
Nsg24
I0
sg25
I7
sg26
I4
sbag1
(g2
g3
Ntp988
Rp989
(dp990
g7
I00
sg8
I0
sg9
Nsg10
I01
sg11
I0
sg12
S'img/sand.png'
p991
sg14
g214
sg16
g17
(I800
I350
I50
I50
tp992
Rp993
sg20
I0
sg21
(I16
I7
tp994
sg23
Nsg24
I0
sg25
I7
sg26
I16
sbag1
(g2
g3
Ntp995
Rp996
(dp997
g7
I01
sg8
I0
sg9
Nsg10
I00
sg11
I0
sg12
S'img/wall.png'
p998
sg14
g15
sg16
g17
(I850
I350
I50
I50
tp999
Rp1000
sg20
I0
sg21
(I17
I7
tp1001
sg23
Nsg24
I1
sg25
I7
sg26
I17
sbag1
(g2
g3
Ntp1002
Rp1003
(dp1004
g7
I01
sg8
I0
sg9
Nsg10
I00
sg11
I0
sg12
S'img/wall.png'
p1005
sg14
g15
sg16
g17
(I900
I350
I50
I50
tp1006
Rp1007
sg20
I0
sg21
(I18
I7
tp1008
sg23
Nsg24
I1
sg25
I7
sg26
I18
sbag1
(g2
g3
Ntp1009
Rp1010
(dp1011
g7
I01
sg8
I0
sg9
Nsg10
I00
sg11
I0
sg12
S'img/wall.png'
p1012
sg14
g15
sg16
g17
(I950
I350
I50
I50
tp1013
Rp1014
sg20
I0
sg21
(I19
I7
tp1015
sg23
Nsg24
I1
sg25
I7
sg26
I19
sbag1
(g2
g3
Ntp1016
Rp1017
(dp1018
g7
I01
sg8
I0
sg9
Nsg10
I00
sg11
I0
sg12
S'img/wall.png'
p1019
sg14
g15
sg16
g17
(I1000
I350
I50
I50
tp1020
Rp1021
sg20
I0
sg21
(I20
I7
tp1022
sg23
Nsg24
I1
sg25
I7
sg26
I20
sbag1
(g2
g3
Ntp1023
Rp1024
(dp1025
g7
I01
sg8
I0
sg9
Nsg10
I00
sg11
I0
sg12
S'img/wall.png'
p1026
sg14
g15
sg16
g17
(I1050
I350
I50
I50
tp1027
Rp1028
sg20
I0
sg21
(I21
I7
tp1029
sg23
Nsg24
I1
sg25
I7
sg26
I21
sbag1
(g2
g3
Ntp1030
Rp1031
(dp1032
g7
I01
sg8
I0
sg9
Nsg10
I00
sg11
I0
sg12
S'img/wall.png'
p1033
sg14
g15
sg16
g17
(I1100
I350
I50
I50
tp1034
Rp1035
sg20
I0
sg21
(I22
I7
tp1036
sg23
Nsg24
I1
sg25
I7
sg26
I22
sbag1
(g2
g3
Ntp1037
Rp1038
(dp1039
g7
I01
sg8
I0
sg9
Nsg10
I00
sg11
I0
sg12
S'img/wall.png'
p1040
sg14
g15
sg16
g17
(I1150
I350
I50
I50
tp1041
Rp1042
sg20
I0
sg21
(I23
I7
tp1043
sg23
Nsg24
I1
sg25
I7
sg26
I23
sbag1
(g2
g3
Ntp1044
Rp1045
(dp1046
g7
I01
sg8
I0
sg9
Nsg10
I00
sg11
I0
sg12
S'img/wall.png'
p1047
sg14
g15
sg16
g17
(I1200
I350
I50
I50
tp1048
Rp1049
sg20
I0
sg21
(I24
I7
tp1050
sg23
Nsg24
I1
sg25
I7
sg26
I24
sbag1
(g2
g3
Ntp1051
Rp1052
(dp1053
g7
I01
sg8
I0
sg9
Nsg10
I01
sg11
I0
sg12
S'img/wall.png'
p1054
sg14
g15
sg16
g17
(I0
I400
I50
I50
tp1055
Rp1056
sg20
I0
sg21
(I0
I8
tp1057
sg23
Nsg24
I1
sg25
I8
sg26
I0
sbag1
(g2
g3
Ntp1058
Rp1059
(dp1060
g7
I00
sg8
I0
sg9
Nsg10
I01
sg11
I0
sg12
S'img/sand.png'
p1061
sg14
g214
sg16
g17
(I50
I400
I50
I50
tp1062
Rp1063
sg20
I0
sg21
(I1
I8
tp1064
sg23
Nsg24
I0
sg25
I8
sg26
I1
sbag1
(g2
g3
Ntp1065
Rp1066
(dp1067
g7
I00
sg8
I0
sg9
Nsg10
I01
sg11
I0
sg12
S'img/sand.png'
p1068
sg14
g214
sg16
g17
(I250
I400
I50
I50
tp1069
Rp1070
sg20
I0
sg21
(I5
I8
tp1071
sg23
Nsg24
I0
sg25
I8
sg26
I5
sbag1
(g2
g3
Ntp1072
Rp1073
(dp1074
g7
I00
sg8
I0
sg9
Nsg10
I01
sg11
I0
sg12
S'img/sand.png'
p1075
sg14
g214
sg16
g17
(I300
I400
I50
I50
tp1076
Rp1077
sg20
I0
sg21
(I6
I8
tp1078
sg23
Nsg24
I0
sg25
I8
sg26
I6
sbag1
(g2
g3
Ntp1079
Rp1080
(dp1081
g7
I00
sg8
I0
sg9
Nsg10
I01
sg11
I0
sg12
S'img/sand.png'
p1082
sg14
g214
sg16
g17
(I350
I400
I50
I50
tp1083
Rp1084
sg20
I0
sg21
(I7
I8
tp1085
sg23
Nsg24
I0
sg25
I8
sg26
I7
sbag1
(g2
g3
Ntp1086
Rp1087
(dp1088
g7
I00
sg8
I0
sg9
Nsg10
I01
sg11
I0
sg12
S'img/sand.png'
p1089
sg14
g214
sg16
g17
(I400
I400
I50
I50
tp1090
Rp1091
sg20
I0
sg21
(I8
I8
tp1092
sg23
Nsg24
I0
sg25
I8
sg26
I8
sbag1
(g2
g3
Ntp1093
Rp1094
(dp1095
g7
I00
sg8
I0
sg9
Nsg10
I01
sg11
I0
sg12
S'img/sand.png'
p1096
sg14
g214
sg16
g17
(I450
I400
I50
I50
tp1097
Rp1098
sg20
I0
sg21
(I9
I8
tp1099
sg23
Nsg24
I0
sg25
I8
sg26
I9
sbag1
(g2
g3
Ntp1100
Rp1101
(dp1102
g7
I00
sg8
I0
sg9
Nsg10
I01
sg11
I0
sg12
S'img/sand.png'
p1103
sg14
g214
sg16
g17
(I500
I400
I50
I50
tp1104
Rp1105
sg20
I0
sg21
(I10
I8
tp1106
sg23
Nsg24
I0
sg25
I8
sg26
I10
sbag1
(g2
g3
Ntp1107
Rp1108
(dp1109
g7
I00
sg8
I0
sg9
Nsg10
I01
sg11
I0
sg12
S'img/sand.png'
p1110
sg14
g214
sg16
g17
(I550
I400
I50
I50
tp1111
Rp1112
sg20
I0
sg21
(I11
I8
tp1113
sg23
Nsg24
I0
sg25
I8
sg26
I11
sbag1
(g2
g3
Ntp1114
Rp1115
(dp1116
g7
I00
sg8
I0
sg9
Nsg10
I01
sg11
I0
sg12
S'img/sand.png'
p1117
sg14
g214
sg16
g17
(I750
I400
I50
I50
tp1118
Rp1119
sg20
I0
sg21
(I15
I8
tp1120
sg23
Nsg24
I0
sg25
I8
sg26
I15
sbag1
(g2
g3
Ntp1121
Rp1122
(dp1123
g7
I00
sg8
I0
sg9
Nsg10
I01
sg11
I0
sg12
S'img/sand.png'
p1124
sg14
g214
sg16
g17
(I800
I400
I50
I50
tp1125
Rp1126
sg20
I0
sg21
(I16
I8
tp1127
sg23
Nsg24
I0
sg25
I8
sg26
I16
sbag1
(g2
g3
Ntp1128
Rp1129
(dp1130
g7
I00
sg8
I0
sg9
Nsg10
I00
sg11
I0
sg12
S'img/sand.png'
p1131
sg14
g214
sg16
g17
(I850
I400
I50
I50
tp1132
Rp1133
sg20
I0
sg21
(I17
I8
tp1134
sg23
Nsg24
I0
sg25
I8
sg26
I17
sbag1
(g2
g3
Ntp1135
Rp1136
(dp1137
g7
I00
sg8
I0
sg9
Nsg10
I00
sg11
I0
sg12
S'img/sand.png'
p1138
sg14
g214
sg16
g17
(I900
I400
I50
I50
tp1139
Rp1140
sg20
I0
sg21
(I18
I8
tp1141
sg23
Nsg24
I0
sg25
I8
sg26
I18
sbag1
(g2
g3
Ntp1142
Rp1143
(dp1144
g7
I00
sg8
I0
sg9
Nsg10
I00
sg11
I0
sg12
S'img/sand.png'
p1145
sg14
g214
sg16
g17
(I950
I400
I50
I50
tp1146
Rp1147
sg20
I0
sg21
(I19
I8
tp1148
sg23
Nsg24
I0
sg25
I8
sg26
I19
sbag1
(g2
g3
Ntp1149
Rp1150
(dp1151
g7
I00
sg8
I0
sg9
Nsg10
I00
sg11
I0
sg12
S'img/sand.png'
p1152
sg14
g214
sg16
g17
(I1000
I400
I50
I50
tp1153
Rp1154
sg20
I0
sg21
(I20
I8
tp1155
sg23
Nsg24
I0
sg25
I8
sg26
I20
sbag1
(g2
g3
Ntp1156
Rp1157
(dp1158
g7
I00
sg8
I0
sg9
Nsg10
I00
sg11
I0
sg12
S'img/sand.png'
p1159
sg14
g214
sg16
g17
(I1050
I400
I50
I50
tp1160
Rp1161
sg20
I0
sg21
(I21
I8
tp1162
sg23
Nsg24
I0
sg25
I8
sg26
I21
sbag1
(g2
g3
Ntp1163
Rp1164
(dp1165
g7
I00
sg8
I0
sg9
Nsg10
I00
sg11
I0
sg12
S'img/sand.png'
p1166
sg14
g214
sg16
g17
(I1100
I400
I50
I50
tp1167
Rp1168
sg20
I0
sg21
(I22
I8
tp1169
sg23
Nsg24
I0
sg25
I8
sg26
I22
sbag1
(g2
g3
Ntp1170
Rp1171
(dp1172
g7
I00
sg8
I0
sg9
Nsg10
I00
sg11
I0
sg12
S'img/sand.png'
p1173
sg14
g214
sg16
g17
(I1150
I400
I50
I50
tp1174
Rp1175
sg20
I0
sg21
(I23
I8
tp1176
sg23
Nsg24
I0
sg25
I8
sg26
I23
sbag1
(g2
g3
Ntp1177
Rp1178
(dp1179
g7
I01
sg8
I0
sg9
Nsg10
I00
sg11
I0
sg12
S'img/wall.png'
p1180
sg14
g15
sg16
g17
(I1200
I400
I50
I50
tp1181
Rp1182
sg20
I0
sg21
(I24
I8
tp1183
sg23
Nsg24
I1
sg25
I8
sg26
I24
sbag1
(g2
g3
Ntp1184
Rp1185
(dp1186
g7
I01
sg8
I0
sg9
Nsg10
I01
sg11
I0
sg12
S'img/wall.png'
p1187
sg14
g15
sg16
g17
(I0
I450
I50
I50
tp1188
Rp1189
sg20
I0
sg21
(I0
I9
tp1190
sg23
Nsg24
I1
sg25
I9
sg26
I0
sbag1
(g2
g3
Ntp1191
Rp1192
(dp1193
g7
I01
sg8
I0
sg9
Nsg10
I01
sg11
I0
sg12
S'img/wall.png'
p1194
sg14
g15
sg16
g17
(I150
I450
I50
I50
tp1195
Rp1196
sg20
I0
sg21
(I3
I9
tp1197
sg23
Nsg24
I1
sg25
I9
sg26
I3
sbag1
(g2
g3
Ntp1198
Rp1199
(dp1200
g7
I00
sg8
I0
sg9
Nsg10
I01
sg11
I0
sg12
S'img/sand.png'
p1201
sg14
g214
sg16
g17
(I750
I450
I50
I50
tp1202
Rp1203
sg20
I0
sg21
(I15
I9
tp1204
sg23
Nsg24
I0
sg25
I9
sg26
I15
sbag1
(g2
g3
Ntp1205
Rp1206
(dp1207
g7
I00
sg8
I0
sg9
Nsg10
I01
sg11
I0
sg12
S'img/sand.png'
p1208
sg14
g214
sg16
g17
(I800
I450
I50
I50
tp1209
Rp1210
sg20
I0
sg21
(I16
I9
tp1211
sg23
Nsg24
I0
sg25
I9
sg26
I16
sbag1
(g2
g3
Ntp1212
Rp1213
(dp1214
g7
I00
sg8
I0
sg9
Nsg10
I00
sg11
I0
sg12
S'img/sand.png'
p1215
sg14
g214
sg16
g17
(I850
I450
I50
I50
tp1216
Rp1217
sg20
I0
sg21
(I17
I9
tp1218
sg23
Nsg24
I0
sg25
I9
sg26
I17
sbag1
(g2
g3
Ntp1219
Rp1220
(dp1221
g7
I00
sg8
I0
sg9
Nsg10
I00
sg11
I0
sg12
S'img/sand.png'
p1222
sg14
g214
sg16
g17
(I900
I450
I50
I50
tp1223
Rp1224
sg20
I0
sg21
(I18
I9
tp1225
sg23
Nsg24
I0
sg25
I9
sg26
I18
sbag1
(g2
g3
Ntp1226
Rp1227
(dp1228
g7
I00
sg8
I0
sg9
Nsg10
I00
sg11
I0
sg12
S'img/sand.png'
p1229
sg14
g214
sg16
g17
(I950
I450
I50
I50
tp1230
Rp1231
sg20
I0
sg21
(I19
I9
tp1232
sg23
Nsg24
I0
sg25
I9
sg26
I19
sbag1
(g2
g3
Ntp1233
Rp1234
(dp1235
g7
I00
sg8
I0
sg9
Nsg10
I00
sg11
I0
sg12
S'img/sand.png'
p1236
sg14
g214
sg16
g17
(I1000
I450
I50
I50
tp1237
Rp1238
sg20
I0
sg21
(I20
I9
tp1239
sg23
Nsg24
I0
sg25
I9
sg26
I20
sbag1
(g2
g3
Ntp1240
Rp1241
(dp1242
g7
I00
sg8
I0
sg9
Nsg10
I00
sg11
I0
sg12
S'img/sand.png'
p1243
sg14
g214
sg16
g17
(I1050
I450
I50
I50
tp1244
Rp1245
sg20
I0
sg21
(I21
I9
tp1246
sg23
Nsg24
I0
sg25
I9
sg26
I21
sbag1
(g2
g3
Ntp1247
Rp1248
(dp1249
g7
I00
sg8
I0
sg9
Nsg10
I00
sg11
I0
sg12
S'img/sand.png'
p1250
sg14
g214
sg16
g17
(I1100
I450
I50
I50
tp1251
Rp1252
sg20
I0
sg21
(I22
I9
tp1253
sg23
Nsg24
I0
sg25
I9
sg26
I22
sbag1
(g2
g3
Ntp1254
Rp1255
(dp1256
g7
I00
sg8
I0
sg9
Nsg10
I00
sg11
I0
sg12
S'img/sand.png'
p1257
sg14
g214
sg16
g17
(I1150
I450
I50
I50
tp1258
Rp1259
sg20
I0
sg21
(I23
I9
tp1260
sg23
Nsg24
I0
sg25
I9
sg26
I23
sbag1
(g2
g3
Ntp1261
Rp1262
(dp1263
g7
I01
sg8
I0
sg9
Nsg10
I00
sg11
I0
sg12
S'img/wall.png'
p1264
sg14
g15
sg16
g17
(I1200
I450
I50
I50
tp1265
Rp1266
sg20
I0
sg21
(I24
I9
tp1267
sg23
Nsg24
I1
sg25
I9
sg26
I24
sbag1
(g2
g3
Ntp1268
Rp1269
(dp1270
g7
I01
sg8
I0
sg9
Nsg10
I01
sg11
I0
sg12
S'img/wall.png'
p1271
sg14
g15
sg16
g17
(I0
I500
I50
I50
tp1272
Rp1273
sg20
I0
sg21
(I0
I10
tp1274
sg23
Nsg24
I1
sg25
I10
sg26
I0
sbag1
(g2
g3
Ntp1275
Rp1276
(dp1277
g7
I00
sg8
I0
sg9
Nsg10
I01
sg11
I0
sg12
S'img/sand.png'
p1278
sg14
g214
sg16
g17
(I50
I500
I50
I50
tp1279
Rp1280
sg20
I0
sg21
(I1
I10
tp1281
sg23
Nsg24
I0
sg25
I10
sg26
I1
sbag1
(g2
g3
Ntp1282
Rp1283
(dp1284
g7
I00
sg8
I0
sg9
Nsg10
I01
sg11
I0
sg12
S'img/sand.png'
p1285
sg14
g214
sg16
g17
(I100
I500
I50
I50
tp1286
Rp1287
sg20
I0
sg21
(I2
I10
tp1288
sg23
Nsg24
I0
sg25
I10
sg26
I2
sbag1
(g2
g3
Ntp1289
Rp1290
(dp1291
g7
I00
sg8
I0
sg9
Nsg10
I01
sg11
I0
sg12
S'img/sand.png'
p1292
sg14
g214
sg16
g17
(I150
I500
I50
I50
tp1293
Rp1294
sg20
I0
sg21
(I3
I10
tp1295
sg23
Nsg24
I0
sg25
I10
sg26
I3
sbag1
(g2
g3
Ntp1296
Rp1297
(dp1298
g7
I00
sg8
I0
sg9
Nsg10
I01
sg11
I0
sg12
S'img/sand.png'
p1299
sg14
g214
sg16
g17
(I200
I500
I50
I50
tp1300
Rp1301
sg20
I0
sg21
(I4
I10
tp1302
sg23
Nsg24
I0
sg25
I10
sg26
I4
sbag1
(g2
g3
Ntp1303
Rp1304
(dp1305
g7
I00
sg8
I0
sg9
Nsg10
I01
sg11
I0
sg12
S'img/sand.png'
p1306
sg14
g214
sg16
g17
(I250
I500
I50
I50
tp1307
Rp1308
sg20
I0
sg21
(I5
I10
tp1309
sg23
Nsg24
I0
sg25
I10
sg26
I5
sbag1
(g2
g3
Ntp1310
Rp1311
(dp1312
g7
I00
sg8
I0
sg9
Nsg10
I01
sg11
I0
sg12
S'img/sand.png'
p1313
sg14
g214
sg16
g17
(I300
I500
I50
I50
tp1314
Rp1315
sg20
I0
sg21
(I6
I10
tp1316
sg23
Nsg24
I0
sg25
I10
sg26
I6
sbag1
(g2
g3
Ntp1317
Rp1318
(dp1319
g7
I00
sg8
I0
sg9
Nsg10
I01
sg11
I0
sg12
S'img/sand.png'
p1320
sg14
g214
sg16
g17
(I350
I500
I50
I50
tp1321
Rp1322
sg20
I0
sg21
(I7
I10
tp1323
sg23
Nsg24
I0
sg25
I10
sg26
I7
sbag1
(g2
g3
Ntp1324
Rp1325
(dp1326
g7
I00
sg8
I0
sg9
Nsg10
I01
sg11
I0
sg12
S'img/sand.png'
p1327
sg14
g214
sg16
g17
(I400
I500
I50
I50
tp1328
Rp1329
sg20
I0
sg21
(I8
I10
tp1330
sg23
Nsg24
I0
sg25
I10
sg26
I8
sbag1
(g2
g3
Ntp1331
Rp1332
(dp1333
g7
I01
sg8
I0
sg9
Nsg10
I01
sg11
I0
sg12
S'img/wall.png'
p1334
sg14
g15
sg16
g17
(I450
I500
I50
I50
tp1335
Rp1336
sg20
I0
sg21
(I9
I10
tp1337
sg23
Nsg24
I1
sg25
I10
sg26
I9
sbag1
(g2
g3
Ntp1338
Rp1339
(dp1340
g7
I00
sg8
I0
sg9
Nsg10
I01
sg11
I0
sg12
S'img/sand.png'
p1341
sg14
g214
sg16
g17
(I500
I500
I50
I50
tp1342
Rp1343
sg20
I0
sg21
(I10
I10
tp1344
sg23
Nsg24
I0
sg25
I10
sg26
I10
sbag1
(g2
g3
Ntp1345
Rp1346
(dp1347
g7
I00
sg8
I0
sg9
Nsg10
I01
sg11
I0
sg12
S'img/sand.png'
p1348
sg14
g214
sg16
g17
(I550
I500
I50
I50
tp1349
Rp1350
sg20
I0
sg21
(I11
I10
tp1351
sg23
Nsg24
I0
sg25
I10
sg26
I11
sbag1
(g2
g3
Ntp1352
Rp1353
(dp1354
g7
I00
sg8
I0
sg9
Nsg10
I01
sg11
I0
sg12
S'img/sand.png'
p1355
sg14
g214
sg16
g17
(I600
I500
I50
I50
tp1356
Rp1357
sg20
I0
sg21
(I12
I10
tp1358
sg23
Nsg24
I0
sg25
I10
sg26
I12
sbag1
(g2
g3
Ntp1359
Rp1360
(dp1361
g7
I00
sg8
I0
sg9
Nsg10
I01
sg11
I0
sg12
S'img/sand.png'
p1362
sg14
g214
sg16
g17
(I650
I500
I50
I50
tp1363
Rp1364
sg20
I0
sg21
(I13
I10
tp1365
sg23
Nsg24
I0
sg25
I10
sg26
I13
sbag1
(g2
g3
Ntp1366
Rp1367
(dp1368
g7
I00
sg8
I0
sg9
Nsg10
I01
sg11
I0
sg12
S'img/sand.png'
p1369
sg14
g214
sg16
g17
(I800
I500
I50
I50
tp1370
Rp1371
sg20
I0
sg21
(I16
I10
tp1372
sg23
Nsg24
I0
sg25
I10
sg26
I16
sbag1
(g2
g3
Ntp1373
Rp1374
(dp1375
g7
I00
sg8
I0
sg9
Nsg10
I00
sg11
I0
sg12
S'img/sand.png'
p1376
sg14
g214
sg16
g17
(I850
I500
I50
I50
tp1377
Rp1378
sg20
I0
sg21
(I17
I10
tp1379
sg23
Nsg24
I0
sg25
I10
sg26
I17
sbag1
(g2
g3
Ntp1380
Rp1381
(dp1382
g7
I00
sg8
I0
sg9
Nsg10
I00
sg11
I0
sg12
S'img/sand.png'
p1383
sg14
g214
sg16
g17
(I900
I500
I50
I50
tp1384
Rp1385
sg20
I0
sg21
(I18
I10
tp1386
sg23
Nsg24
I0
sg25
I10
sg26
I18
sbag1
(g2
g3
Ntp1387
Rp1388
(dp1389
g7
I00
sg8
I0
sg9
Nsg10
I00
sg11
I0
sg12
S'img/sand.png'
p1390
sg14
g214
sg16
g17
(I950
I500
I50
I50
tp1391
Rp1392
sg20
I0
sg21
(I19
I10
tp1393
sg23
Nsg24
I0
sg25
I10
sg26
I19
sbag1
(g2
g3
Ntp1394
Rp1395
(dp1396
g7
I00
sg8
I0
sg9
Nsg10
I00
sg11
I0
sg12
S'img/sand.png'
p1397
sg14
g214
sg16
g17
(I1000
I500
I50
I50
tp1398
Rp1399
sg20
I0
sg21
(I20
I10
tp1400
sg23
Nsg24
I0
sg25
I10
sg26
I20
sbag1
(g2
g3
Ntp1401
Rp1402
(dp1403
g7
I00
sg8
I0
sg9
Nsg10
I00
sg11
I0
sg12
S'img/sand.png'
p1404
sg14
g214
sg16
g17
(I1050
I500
I50
I50
tp1405
Rp1406
sg20
I0
sg21
(I21
I10
tp1407
sg23
Nsg24
I0
sg25
I10
sg26
I21
sbag1
(g2
g3
Ntp1408
Rp1409
(dp1410
g7
I00
sg8
I0
sg9
Nsg10
I00
sg11
I0
sg12
S'img/sand.png'
p1411
sg14
g214
sg16
g17
(I1100
I500
I50
I50
tp1412
Rp1413
sg20
I0
sg21
(I22
I10
tp1414
sg23
Nsg24
I0
sg25
I10
sg26
I22
sbag1
(g2
g3
Ntp1415
Rp1416
(dp1417
g7
I00
sg8
I0
sg9
Nsg10
I00
sg11
I0
sg12
S'img/sand.png'
p1418
sg14
g214
sg16
g17
(I1150
I500
I50
I50
tp1419
Rp1420
sg20
I0
sg21
(I23
I10
tp1421
sg23
Nsg24
I0
sg25
I10
sg26
I23
sbag1
(g2
g3
Ntp1422
Rp1423
(dp1424
g7
I01
sg8
I0
sg9
Nsg10
I00
sg11
I0
sg12
S'img/wall.png'
p1425
sg14
g15
sg16
g17
(I1200
I500
I50
I50
tp1426
Rp1427
sg20
I0
sg21
(I24
I10
tp1428
sg23
Nsg24
I1
sg25
I10
sg26
I24
sbag1
(g2
g3
Ntp1429
Rp1430
(dp1431
g7
I01
sg8
I0
sg9
Nsg10
I01
sg11
I0
sg12
S'img/wall.png'
p1432
sg14
g15
sg16
g17
(I0
I550
I50
I50
tp1433
Rp1434
sg20
I0
sg21
(I0
I11
tp1435
sg23
Nsg24
I1
sg25
I11
sg26
I0
sbag1
(g2
g3
Ntp1436
Rp1437
(dp1438
g7
I00
sg8
I0
sg9
Nsg10
I01
sg11
I0
sg12
S'img/sand.png'
p1439
sg14
g214
sg16
g17
(I50
I550
I50
I50
tp1440
Rp1441
sg20
I0
sg21
(I1
I11
tp1442
sg23
Nsg24
I0
sg25
I11
sg26
I1
sbag1
(g2
g3
Ntp1443
Rp1444
(dp1445
g7
I00
sg8
I0
sg9
Nsg10
I01
sg11
I0
sg12
S'img/sand.png'
p1446
sg14
g214
sg16
g17
(I100
I550
I50
I50
tp1447
Rp1448
sg20
I0
sg21
(I2
I11
tp1449
sg23
Nsg24
I0
sg25
I11
sg26
I2
sbag1
(g2
g3
Ntp1450
Rp1451
(dp1452
g7
I00
sg8
I0
sg9
Nsg10
I01
sg11
I0
sg12
S'img/sand.png'
p1453
sg14
g214
sg16
g17
(I150
I550
I50
I50
tp1454
Rp1455
sg20
I0
sg21
(I3
I11
tp1456
sg23
Nsg24
I0
sg25
I11
sg26
I3
sbag1
(g2
g3
Ntp1457
Rp1458
(dp1459
g7
I00
sg8
I0
sg9
Nsg10
I01
sg11
I0
sg12
S'img/sand.png'
p1460
sg14
g214
sg16
g17
(I200
I550
I50
I50
tp1461
Rp1462
sg20
I0
sg21
(I4
I11
tp1463
sg23
Nsg24
I0
sg25
I11
sg26
I4
sbag1
(g2
g3
Ntp1464
Rp1465
(dp1466
g7
I00
sg8
I0
sg9
Nsg10
I01
sg11
I0
sg12
S'img/sand.png'
p1467
sg14
g214
sg16
g17
(I250
I550
I50
I50
tp1468
Rp1469
sg20
I0
sg21
(I5
I11
tp1470
sg23
Nsg24
I0
sg25
I11
sg26
I5
sbag1
(g2
g3
Ntp1471
Rp1472
(dp1473
g7
I00
sg8
I0
sg9
Nsg10
I01
sg11
I0
sg12
S'img/sand.png'
p1474
sg14
g214
sg16
g17
(I300
I550
I50
I50
tp1475
Rp1476
sg20
I0
sg21
(I6
I11
tp1477
sg23
Nsg24
I0
sg25
I11
sg26
I6
sbag1
(g2
g3
Ntp1478
Rp1479
(dp1480
g7
I00
sg8
I0
sg9
Nsg10
I01
sg11
I0
sg12
S'img/sand.png'
p1481
sg14
g214
sg16
g17
(I350
I550
I50
I50
tp1482
Rp1483
sg20
I0
sg21
(I7
I11
tp1484
sg23
Nsg24
I0
sg25
I11
sg26
I7
sbag1
(g2
g3
Ntp1485
Rp1486
(dp1487
g7
I00
sg8
I0
sg9
Nsg10
I01
sg11
I0
sg12
S'img/sand.png'
p1488
sg14
g214
sg16
g17
(I400
I550
I50
I50
tp1489
Rp1490
sg20
I0
sg21
(I8
I11
tp1491
sg23
Nsg24
I0
sg25
I11
sg26
I8
sbag1
(g2
g3
Ntp1492
Rp1493
(dp1494
g7
I01
sg8
I0
sg9
Nsg10
I01
sg11
I0
sg12
S'img/wall.png'
p1495
sg14
g15
sg16
g17
(I450
I550
I50
I50
tp1496
Rp1497
sg20
I0
sg21
(I9
I11
tp1498
sg23
Nsg24
I1
sg25
I11
sg26
I9
sbag1
(g2
g3
Ntp1499
Rp1500
(dp1501
g7
I00
sg8
I0
sg9
Nsg10
I01
sg11
I0
sg12
S'img/sand.png'
p1502
sg14
g214
sg16
g17
(I500
I550
I50
I50
tp1503
Rp1504
sg20
I0
sg21
(I10
I11
tp1505
sg23
Nsg24
I0
sg25
I11
sg26
I10
sbag1
(g2
g3
Ntp1506
Rp1507
(dp1508
g7
I00
sg8
I0
sg9
Nsg10
I01
sg11
I0
sg12
S'img/sand.png'
p1509
sg14
g214
sg16
g17
(I550
I550
I50
I50
tp1510
Rp1511
sg20
I0
sg21
(I11
I11
tp1512
sg23
Nsg24
I0
sg25
I11
sg26
I11
sbag1
(g2
g3
Ntp1513
Rp1514
(dp1515
g7
I01
sg8
I0
sg9
Nsg10
I01
sg11
I0
sg12
S'img/wall.png'
p1516
sg14
g15
sg16
g17
(I600
I550
I50
I50
tp1517
Rp1518
sg20
I0
sg21
(I12
I11
tp1519
sg23
Nsg24
I1
sg25
I11
sg26
I12
sbag1
(g2
g3
Ntp1520
Rp1521
(dp1522
g7
I00
sg8
I0
sg9
Nsg10
I01
sg11
I0
sg12
S'img/sand.png'
p1523
sg14
g214
sg16
g17
(I650
I550
I50
I50
tp1524
Rp1525
sg20
I0
sg21
(I13
I11
tp1526
sg23
Nsg24
I0
sg25
I11
sg26
I13
sbag1
(g2
g3
Ntp1527
Rp1528
(dp1529
g7
I00
sg8
I0
sg9
Nsg10
I01
sg11
I0
sg12
S'img/sand.png'
p1530
sg14
g214
sg16
g17
(I800
I550
I50
I50
tp1531
Rp1532
sg20
I0
sg21
(I16
I11
tp1533
sg23
Nsg24
I0
sg25
I11
sg26
I16
sbag1
(g2
g3
Ntp1534
Rp1535
(dp1536
g7
I00
sg8
I0
sg9
Nsg10
I00
sg11
I0
sg12
S'img/sand.png'
p1537
sg14
g214
sg16
g17
(I850
I550
I50
I50
tp1538
Rp1539
sg20
I0
sg21
(I17
I11
tp1540
sg23
Nsg24
I0
sg25
I11
sg26
I17
sbag1
(g2
g3
Ntp1541
Rp1542
(dp1543
g7
I00
sg8
I0
sg9
Nsg10
I00
sg11
I0
sg12
S'img/sand.png'
p1544
sg14
g214
sg16
g17
(I900
I550
I50
I50
tp1545
Rp1546
sg20
I0
sg21
(I18
I11
tp1547
sg23
Nsg24
I0
sg25
I11
sg26
I18
sbag1
(g2
g3
Ntp1548
Rp1549
(dp1550
g7
I00
sg8
I0
sg9
Nsg10
I00
sg11
I0
sg12
S'img/sand.png'
p1551
sg14
g214
sg16
g17
(I950
I550
I50
I50
tp1552
Rp1553
sg20
I0
sg21
(I19
I11
tp1554
sg23
Nsg24
I0
sg25
I11
sg26
I19
sbag1
(g2
g3
Ntp1555
Rp1556
(dp1557
g7
I00
sg8
I0
sg9
Nsg10
I00
sg11
I0
sg12
S'img/sand.png'
p1558
sg14
g214
sg16
g17
(I1000
I550
I50
I50
tp1559
Rp1560
sg20
I0
sg21
(I20
I11
tp1561
sg23
Nsg24
I0
sg25
I11
sg26
I20
sbag1
(g2
g3
Ntp1562
Rp1563
(dp1564
g7
I00
sg8
I0
sg9
Nsg10
I00
sg11
I0
sg12
S'img/sand.png'
p1565
sg14
g214
sg16
g17
(I1050
I550
I50
I50
tp1566
Rp1567
sg20
I0
sg21
(I21
I11
tp1568
sg23
Nsg24
I0
sg25
I11
sg26
I21
sbag1
(g2
g3
Ntp1569
Rp1570
(dp1571
g7
I00
sg8
I0
sg9
Nsg10
I00
sg11
I0
sg12
S'img/sand.png'
p1572
sg14
g214
sg16
g17
(I1100
I550
I50
I50
tp1573
Rp1574
sg20
I0
sg21
(I22
I11
tp1575
sg23
Nsg24
I0
sg25
I11
sg26
I22
sbag1
(g2
g3
Ntp1576
Rp1577
(dp1578
g7
I00
sg8
I0
sg9
Nsg10
I00
sg11
I0
sg12
S'img/sand.png'
p1579
sg14
g214
sg16
g17
(I1150
I550
I50
I50
tp1580
Rp1581
sg20
I0
sg21
(I23
I11
tp1582
sg23
Nsg24
I0
sg25
I11
sg26
I23
sbag1
(g2
g3
Ntp1583
Rp1584
(dp1585
g7
I01
sg8
I0
sg9
Nsg10
I00
sg11
I0
sg12
S'img/wall.png'
p1586
sg14
g15
sg16
g17
(I1200
I550
I50
I50
tp1587
Rp1588
sg20
I0
sg21
(I24
I11
tp1589
sg23
Nsg24
I1
sg25
I11
sg26
I24
sbag1
(g2
g3
Ntp1590
Rp1591
(dp1592
g7
I01
sg8
I0
sg9
Nsg10
I01
sg11
I0
sg12
S'img/wall.png'
p1593
sg14
g15
sg16
g17
(I0
I600
I50
I50
tp1594
Rp1595
sg20
I0
sg21
(I0
I12
tp1596
sg23
Nsg24
I1
sg25
I12
sg26
I0
sbag1
(g2
g3
Ntp1597
Rp1598
(dp1599
g7
I00
sg8
I0
sg9
Nsg10
I01
sg11
I0
sg12
S'img/sand.png'
p1600
sg14
g214
sg16
g17
(I50
I600
I50
I50
tp1601
Rp1602
sg20
I0
sg21
(I1
I12
tp1603
sg23
Nsg24
I0
sg25
I12
sg26
I1
sbag1
(g2
g3
Ntp1604
Rp1605
(dp1606
g7
I00
sg8
I0
sg9
Nsg10
I01
sg11
I0
sg12
S'img/sand.png'
p1607
sg14
g214
sg16
g17
(I100
I600
I50
I50
tp1608
Rp1609
sg20
I0
sg21
(I2
I12
tp1610
sg23
Nsg24
I0
sg25
I12
sg26
I2
sbag1
(g2
g3
Ntp1611
Rp1612
(dp1613
g7
I00
sg8
I0
sg9
Nsg10
I01
sg11
I0
sg12
S'img/sand.png'
p1614
sg14
g214
sg16
g17
(I150
I600
I50
I50
tp1615
Rp1616
sg20
I0
sg21
(I3
I12
tp1617
sg23
Nsg24
I0
sg25
I12
sg26
I3
sbag1
(g2
g3
Ntp1618
Rp1619
(dp1620
g7
I00
sg8
I0
sg9
Nsg10
I01
sg11
I0
sg12
S'img/sand.png'
p1621
sg14
g214
sg16
g17
(I200
I600
I50
I50
tp1622
Rp1623
sg20
I0
sg21
(I4
I12
tp1624
sg23
Nsg24
I0
sg25
I12
sg26
I4
sbag1
(g2
g3
Ntp1625
Rp1626
(dp1627
g7
I00
sg8
I0
sg9
Nsg10
I01
sg11
I0
sg12
S'img/sand.png'
p1628
sg14
g214
sg16
g17
(I250
I600
I50
I50
tp1629
Rp1630
sg20
I0
sg21
(I5
I12
tp1631
sg23
Nsg24
I0
sg25
I12
sg26
I5
sbag1
(g2
g3
Ntp1632
Rp1633
(dp1634
g7
I00
sg8
I0
sg9
Nsg10
I01
sg11
I0
sg12
S'img/sand.png'
p1635
sg14
g214
sg16
g17
(I300
I600
I50
I50
tp1636
Rp1637
sg20
I0
sg21
(I6
I12
tp1638
sg23
Nsg24
I0
sg25
I12
sg26
I6
sbag1
(g2
g3
Ntp1639
Rp1640
(dp1641
g7
I01
sg8
I0
sg9
Nsg10
I01
sg11
I0
sg12
S'img/wall.png'
p1642
sg14
g15
sg16
g17
(I350
I600
I50
I50
tp1643
Rp1644
sg20
I0
sg21
(I7
I12
tp1645
sg23
Nsg24
I1
sg25
I12
sg26
I7
sbag1
(g2
g3
Ntp1646
Rp1647
(dp1648
g7
I00
sg8
I0
sg9
Nsg10
I01
sg11
I0
sg12
S'img/sand.png'
p1649
sg14
g214
sg16
g17
(I400
I600
I50
I50
tp1650
Rp1651
sg20
I0
sg21
(I8
I12
tp1652
sg23
Nsg24
I0
sg25
I12
sg26
I8
sbag1
(g2
g3
Ntp1653
Rp1654
(dp1655
g7
I01
sg8
I0
sg9
Nsg10
I01
sg11
I0
sg12
S'img/wall.png'
p1656
sg14
g15
sg16
g17
(I450
I600
I50
I50
tp1657
Rp1658
sg20
I0
sg21
(I9
I12
tp1659
sg23
Nsg24
I1
sg25
I12
sg26
I9
sbag1
(g2
g3
Ntp1660
Rp1661
(dp1662
g7
I00
sg8
I0
sg9
Nsg10
I01
sg11
I0
sg12
S'img/sand.png'
p1663
sg14
g214
sg16
g17
(I500
I600
I50
I50
tp1664
Rp1665
sg20
I0
sg21
(I10
I12
tp1666
sg23
Nsg24
I0
sg25
I12
sg26
I10
sbag1
(g2
g3
Ntp1667
Rp1668
(dp1669
g7
I00
sg8
I0
sg9
Nsg10
I01
sg11
I0
sg12
S'img/sand.png'
p1670
sg14
g214
sg16
g17
(I550
I600
I50
I50
tp1671
Rp1672
sg20
I0
sg21
(I11
I12
tp1673
sg23
Nsg24
I0
sg25
I12
sg26
I11
sbag1
(g2
g3
Ntp1674
Rp1675
(dp1676
g7
I01
sg8
I0
sg9
Nsg10
I01
sg11
I0
sg12
S'img/wall.png'
p1677
sg14
g15
sg16
g17
(I600
I600
I50
I50
tp1678
Rp1679
sg20
I0
sg21
(I12
I12
tp1680
sg23
Nsg24
I1
sg25
I12
sg26
I12
sbag1
(g2
g3
Ntp1681
Rp1682
(dp1683
g7
I00
sg8
I0
sg9
Nsg10
I01
sg11
I0
sg12
S'img/sand.png'
p1684
sg14
g214
sg16
g17
(I650
I600
I50
I50
tp1685
Rp1686
sg20
I0
sg21
(I13
I12
tp1687
sg23
Nsg24
I0
sg25
I12
sg26
I13
sbag1
(g2
g3
Ntp1688
Rp1689
(dp1690
g7
I00
sg8
I0
sg9
Nsg10
I01
sg11
I0
sg12
S'img/sand.png'
p1691
sg14
g214
sg16
g17
(I800
I600
I50
I50
tp1692
Rp1693
sg20
I0
sg21
(I16
I12
tp1694
sg23
Nsg24
I0
sg25
I12
sg26
I16
sbag1
(g2
g3
Ntp1695
Rp1696
(dp1697
g7
I00
sg8
I0
sg9
Nsg10
I00
sg11
I0
sg12
S'img/sand.png'
p1698
sg14
g214
sg16
g17
(I850
I600
I50
I50
tp1699
Rp1700
sg20
I0
sg21
(I17
I12
tp1701
sg23
Nsg24
I0
sg25
I12
sg26
I17
sbag1
(g2
g3
Ntp1702
Rp1703
(dp1704
g7
I00
sg8
I0
sg9
Nsg10
I00
sg11
I0
sg12
S'img/sand.png'
p1705
sg14
g214
sg16
g17
(I900
I600
I50
I50
tp1706
Rp1707
sg20
I0
sg21
(I18
I12
tp1708
sg23
Nsg24
I0
sg25
I12
sg26
I18
sbag1
(g2
g3
Ntp1709
Rp1710
(dp1711
g7
I00
sg8
I0
sg9
Nsg10
I00
sg11
I0
sg12
S'img/sand.png'
p1712
sg14
g214
sg16
g17
(I950
I600
I50
I50
tp1713
Rp1714
sg20
I0
sg21
(I19
I12
tp1715
sg23
Nsg24
I0
sg25
I12
sg26
I19
sbag1
(g2
g3
Ntp1716
Rp1717
(dp1718
g7
I00
sg8
I0
sg9
Nsg10
I00
sg11
I0
sg12
S'img/sand.png'
p1719
sg14
g214
sg16
g17
(I1000
I600
I50
I50
tp1720
Rp1721
sg20
I0
sg21
(I20
I12
tp1722
sg23
Nsg24
I0
sg25
I12
sg26
I20
sbag1
(g2
g3
Ntp1723
Rp1724
(dp1725
g7
I00
sg8
I0
sg9
Nsg10
I00
sg11
I0
sg12
S'img/sand.png'
p1726
sg14
g214
sg16
g17
(I1050
I600
I50
I50
tp1727
Rp1728
sg20
I0
sg21
(I21
I12
tp1729
sg23
Nsg24
I0
sg25
I12
sg26
I21
sbag1
(g2
g3
Ntp1730
Rp1731
(dp1732
g7
I00
sg8
I0
sg9
Nsg10
I00
sg11
I0
sg12
S'img/sand.png'
p1733
sg14
g214
sg16
g17
(I1100
I600
I50
I50
tp1734
Rp1735
sg20
I0
sg21
(I22
I12
tp1736
sg23
Nsg24
I0
sg25
I12
sg26
I22
sbag1
(g2
g3
Ntp1737
Rp1738
(dp1739
g7
I00
sg8
I0
sg9
Nsg10
I00
sg11
I0
sg12
S'img/sand.png'
p1740
sg14
g214
sg16
g17
(I1150
I600
I50
I50
tp1741
Rp1742
sg20
I0
sg21
(I23
I12
tp1743
sg23
Nsg24
I0
sg25
I12
sg26
I23
sbag1
(g2
g3
Ntp1744
Rp1745
(dp1746
g7
I01
sg8
I0
sg9
Nsg10
I00
sg11
I0
sg12
S'img/wall.png'
p1747
sg14
g15
sg16
g17
(I1200
I600
I50
I50
tp1748
Rp1749
sg20
I0
sg21
(I24
I12
tp1750
sg23
Nsg24
I1
sg25
I12
sg26
I24
sbag1
(g2
g3
Ntp1751
Rp1752
(dp1753
g7
I01
sg8
I0
sg9
Nsg10
I01
sg11
I0
sg12
S'img/wall.png'
p1754
sg14
g15
sg16
g17
(I0
I650
I50
I50
tp1755
Rp1756
sg20
I0
sg21
(I0
I13
tp1757
sg23
Nsg24
I1
sg25
I13
sg26
I0
sbag1
(g2
g3
Ntp1758
Rp1759
(dp1760
g7
I00
sg8
I0
sg9
Nsg10
I01
sg11
I0
sg12
S'img/sand.png'
p1761
sg14
g214
sg16
g17
(I50
I650
I50
I50
tp1762
Rp1763
sg20
I0
sg21
(I1
I13
tp1764
sg23
Nsg24
I0
sg25
I13
sg26
I1
sbag1
(g2
g3
Ntp1765
Rp1766
(dp1767
g7
I00
sg8
I0
sg9
Nsg10
I01
sg11
I0
sg12
S'img/sand.png'
p1768
sg14
g214
sg16
g17
(I100
I650
I50
I50
tp1769
Rp1770
sg20
I0
sg21
(I2
I13
tp1771
sg23
Nsg24
I0
sg25
I13
sg26
I2
sbag1
(g2
g3
Ntp1772
Rp1773
(dp1774
g7
I00
sg8
I0
sg9
Nsg10
I01
sg11
I0
sg12
S'img/sand.png'
p1775
sg14
g214
sg16
g17
(I150
I650
I50
I50
tp1776
Rp1777
sg20
I0
sg21
(I3
I13
tp1778
sg23
Nsg24
I0
sg25
I13
sg26
I3
sbag1
(g2
g3
Ntp1779
Rp1780
(dp1781
g7
I00
sg8
I0
sg9
Nsg10
I01
sg11
I0
sg12
S'img/sand.png'
p1782
sg14
g214
sg16
g17
(I200
I650
I50
I50
tp1783
Rp1784
sg20
I0
sg21
(I4
I13
tp1785
sg23
Nsg24
I0
sg25
I13
sg26
I4
sbag1
(g2
g3
Ntp1786
Rp1787
(dp1788
g7
I00
sg8
I0
sg9
Nsg10
I01
sg11
I0
sg12
S'img/sand.png'
p1789
sg14
g214
sg16
g17
(I250
I650
I50
I50
tp1790
Rp1791
sg20
I0
sg21
(I5
I13
tp1792
sg23
Nsg24
I0
sg25
I13
sg26
I5
sbag1
(g2
g3
Ntp1793
Rp1794
(dp1795
g7
I01
sg8
I0
sg9
Nsg10
I01
sg11
I0
sg12
S'img/wall.png'
p1796
sg14
g15
sg16
g17
(I300
I650
I50
I50
tp1797
Rp1798
sg20
I0
sg21
(I6
I13
tp1799
sg23
Nsg24
I1
sg25
I13
sg26
I6
sbag1
(g2
g3
Ntp1800
Rp1801
(dp1802
g7
I00
sg8
I0
sg9
Nsg10
I01
sg11
I0
sg12
S'img/sand.png'
p1803
sg14
g214
sg16
g17
(I350
I650
I50
I50
tp1804
Rp1805
sg20
I0
sg21
(I7
I13
tp1806
sg23
Nsg24
I0
sg25
I13
sg26
I7
sbag1
(g2
g3
Ntp1807
Rp1808
(dp1809
g7
I00
sg8
I0
sg9
Nsg10
I01
sg11
I0
sg12
S'img/sand.png'
p1810
sg14
g214
sg16
g17
(I400
I650
I50
I50
tp1811
Rp1812
sg20
I0
sg21
(I8
I13
tp1813
sg23
Nsg24
I0
sg25
I13
sg26
I8
sbag1
(g2
g3
Ntp1814
Rp1815
(dp1816
g7
I01
sg8
I0
sg9
Nsg10
I01
sg11
I0
sg12
S'img/wall.png'
p1817
sg14
g15
sg16
g17
(I450
I650
I50
I50
tp1818
Rp1819
sg20
I0
sg21
(I9
I13
tp1820
sg23
Nsg24
I1
sg25
I13
sg26
I9
sbag1
(g2
g3
Ntp1821
Rp1822
(dp1823
g7
I00
sg8
I0
sg9
Nsg10
I01
sg11
I0
sg12
S'img/sand.png'
p1824
sg14
g214
sg16
g17
(I500
I650
I50
I50
tp1825
Rp1826
sg20
I0
sg21
(I10
I13
tp1827
sg23
Nsg24
I0
sg25
I13
sg26
I10
sbag1
(g2
g3
Ntp1828
Rp1829
(dp1830
g7
I00
sg8
I0
sg9
Nsg10
I01
sg11
I0
sg12
S'img/sand.png'
p1831
sg14
g214
sg16
g17
(I550
I650
I50
I50
tp1832
Rp1833
sg20
I0
sg21
(I11
I13
tp1834
sg23
Nsg24
I0
sg25
I13
sg26
I11
sbag1
(g2
g3
Ntp1835
Rp1836
(dp1837
g7
I01
sg8
I0
sg9
Nsg10
I01
sg11
I0
sg12
S'img/wall.png'
p1838
sg14
g15
sg16
g17
(I600
I650
I50
I50
tp1839
Rp1840
sg20
I0
sg21
(I12
I13
tp1841
sg23
Nsg24
I1
sg25
I13
sg26
I12
sbag1
(g2
g3
Ntp1842
Rp1843
(dp1844
g7
I00
sg8
I0
sg9
Nsg10
I01
sg11
I0
sg12
S'img/sand.png'
p1845
sg14
g214
sg16
g17
(I650
I650
I50
I50
tp1846
Rp1847
sg20
I0
sg21
(I13
I13
tp1848
sg23
Nsg24
I0
sg25
I13
sg26
I13
sbag1
(g2
g3
Ntp1849
Rp1850
(dp1851
g7
I00
sg8
I0
sg9
Nsg10
I01
sg11
I0
sg12
S'img/sand.png'
p1852
sg14
g214
sg16
g17
(I750
I650
I50
I50
tp1853
Rp1854
sg20
I0
sg21
(I15
I13
tp1855
sg23
Nsg24
I0
sg25
I13
sg26
I15
sbag1
(g2
g3
Ntp1856
Rp1857
(dp1858
g7
I00
sg8
I0
sg9
Nsg10
I01
sg11
I0
sg12
S'img/sand.png'
p1859
sg14
g214
sg16
g17
(I800
I650
I50
I50
tp1860
Rp1861
sg20
I0
sg21
(I16
I13
tp1862
sg23
Nsg24
I0
sg25
I13
sg26
I16
sbag1
(g2
g3
Ntp1863
Rp1864
(dp1865
g7
I00
sg8
I0
sg9
Nsg10
I00
sg11
I0
sg12
S'img/sand.png'
p1866
sg14
g214
sg16
g17
(I850
I650
I50
I50
tp1867
Rp1868
sg20
I0
sg21
(I17
I13
tp1869
sg23
Nsg24
I0
sg25
I13
sg26
I17
sbag1
(g2
g3
Ntp1870
Rp1871
(dp1872
g7
I00
sg8
I0
sg9
Nsg10
I00
sg11
I0
sg12
S'img/sand.png'
p1873
sg14
g214
sg16
g17
(I900
I650
I50
I50
tp1874
Rp1875
sg20
I0
sg21
(I18
I13
tp1876
sg23
Nsg24
I0
sg25
I13
sg26
I18
sbag1
(g2
g3
Ntp1877
Rp1878
(dp1879
g7
I00
sg8
I0
sg9
Nsg10
I00
sg11
I0
sg12
S'img/sand.png'
p1880
sg14
g214
sg16
g17
(I950
I650
I50
I50
tp1881
Rp1882
sg20
I0
sg21
(I19
I13
tp1883
sg23
Nsg24
I0
sg25
I13
sg26
I19
sbag1
(g2
g3
Ntp1884
Rp1885
(dp1886
g7
I00
sg8
I0
sg9
Nsg10
I00
sg11
I0
sg12
S'img/sand.png'
p1887
sg14
g214
sg16
g17
(I1000
I650
I50
I50
tp1888
Rp1889
sg20
I0
sg21
(I20
I13
tp1890
sg23
Nsg24
I0
sg25
I13
sg26
I20
sbag1
(g2
g3
Ntp1891
Rp1892
(dp1893
g7
I00
sg8
I0
sg9
Nsg10
I00
sg11
I0
sg12
S'img/sand.png'
p1894
sg14
g214
sg16
g17
(I1050
I650
I50
I50
tp1895
Rp1896
sg20
I0
sg21
(I21
I13
tp1897
sg23
Nsg24
I0
sg25
I13
sg26
I21
sbag1
(g2
g3
Ntp1898
Rp1899
(dp1900
g7
I00
sg8
I0
sg9
Nsg10
I00
sg11
I0
sg12
S'img/sand.png'
p1901
sg14
g214
sg16
g17
(I1100
I650
I50
I50
tp1902
Rp1903
sg20
I0
sg21
(I22
I13
tp1904
sg23
Nsg24
I0
sg25
I13
sg26
I22
sbag1
(g2
g3
Ntp1905
Rp1906
(dp1907
g7
I00
sg8
I0
sg9
Nsg10
I00
sg11
I0
sg12
S'img/sand.png'
p1908
sg14
g214
sg16
g17
(I1150
I650
I50
I50
tp1909
Rp1910
sg20
I0
sg21
(I23
I13
tp1911
sg23
Nsg24
I0
sg25
I13
sg26
I23
sbag1
(g2
g3
Ntp1912
Rp1913
(dp1914
g7
I01
sg8
I0
sg9
Nsg10
I00
sg11
I0
sg12
S'img/wall.png'
p1915
sg14
g15
sg16
g17
(I1200
I650
I50
I50
tp1916
Rp1917
sg20
I0
sg21
(I24
I13
tp1918
sg23
Nsg24
I1
sg25
I13
sg26
I24
sbag1
(g2
g3
Ntp1919
Rp1920
(dp1921
g7
I01
sg8
I0
sg9
Nsg10
I01
sg11
I0
sg12
S'img/wall.png'
p1922
sg14
g15
sg16
g17
(I0
I700
I50
I50
tp1923
Rp1924
sg20
I0
sg21
(I0
I14
tp1925
sg23
Nsg24
I1
sg25
I14
sg26
I0
sbag1
(g2
g3
Ntp1926
Rp1927
(dp1928
g7
I00
sg8
I0
sg9
Nsg10
I01
sg11
I0
sg12
S'img/sand.png'
p1929
sg14
g214
sg16
g17
(I50
I700
I50
I50
tp1930
Rp1931
sg20
I0
sg21
(I1
I14
tp1932
sg23
Nsg24
I0
sg25
I14
sg26
I1
sbag1
(g2
g3
Ntp1933
Rp1934
(dp1935
g7
I00
sg8
I0
sg9
Nsg10
I01
sg11
I0
sg12
S'img/sand.png'
p1936
sg14
g214
sg16
g17
(I100
I700
I50
I50
tp1937
Rp1938
sg20
I0
sg21
(I2
I14
tp1939
sg23
Nsg24
I0
sg25
I14
sg26
I2
sbag1
(g2
g3
Ntp1940
Rp1941
(dp1942
g7
I00
sg8
I0
sg9
Nsg10
I01
sg11
I0
sg12
S'img/sand.png'
p1943
sg14
g214
sg16
g17
(I150
I700
I50
I50
tp1944
Rp1945
sg20
I0
sg21
(I3
I14
tp1946
sg23
Nsg24
I0
sg25
I14
sg26
I3
sbag1
(g2
g3
Ntp1947
Rp1948
(dp1949
g7
I00
sg8
I0
sg9
Nsg10
I01
sg11
I0
sg12
S'img/sand.png'
p1950
sg14
g214
sg16
g17
(I200
I700
I50
I50
tp1951
Rp1952
sg20
I0
sg21
(I4
I14
tp1953
sg23
Nsg24
I0
sg25
I14
sg26
I4
sbag1
(g2
g3
Ntp1954
Rp1955
(dp1956
g7
I00
sg8
I0
sg9
Nsg10
I01
sg11
I0
sg12
S'img/sand.png'
p1957
sg14
g214
sg16
g17
(I250
I700
I50
I50
tp1958
Rp1959
sg20
I0
sg21
(I5
I14
tp1960
sg23
Nsg24
I0
sg25
I14
sg26
I5
sbag1
(g2
g3
Ntp1961
Rp1962
(dp1963
g7
I01
sg8
I0
sg9
Nsg10
I01
sg11
I0
sg12
S'img/wall.png'
p1964
sg14
g15
sg16
g17
(I300
I700
I50
I50
tp1965
Rp1966
sg20
I0
sg21
(I6
I14
tp1967
sg23
Nsg24
I1
sg25
I14
sg26
I6
sbag1
(g2
g3
Ntp1968
Rp1969
(dp1970
g7
I00
sg8
I0
sg9
Nsg10
I01
sg11
I0
sg12
S'img/sand.png'
p1971
sg14
g214
sg16
g17
(I350
I700
I50
I50
tp1972
Rp1973
sg20
I0
sg21
(I7
I14
tp1974
sg23
Nsg24
I0
sg25
I14
sg26
I7
sbag1
(g2
g3
Ntp1975
Rp1976
(dp1977
g7
I00
sg8
I0
sg9
Nsg10
I01
sg11
I0
sg12
S'img/sand.png'
p1978
sg14
g214
sg16
g17
(I400
I700
I50
I50
tp1979
Rp1980
sg20
I0
sg21
(I8
I14
tp1981
sg23
Nsg24
I0
sg25
I14
sg26
I8
sbag1
(g2
g3
Ntp1982
Rp1983
(dp1984
g7
I00
sg8
I0
sg9
Nsg10
I01
sg11
I0
sg12
S'img/sand.png'
p1985
sg14
g214
sg16
g17
(I450
I700
I50
I50
tp1986
Rp1987
sg20
I0
sg21
(I9
I14
tp1988
sg23
Nsg24
I0
sg25
I14
sg26
I9
sbag1
(g2
g3
Ntp1989
Rp1990
(dp1991
g7
I00
sg8
I0
sg9
Nsg10
I01
sg11
I0
sg12
S'img/sand.png'
p1992
sg14
g214
sg16
g17
(I500
I700
I50
I50
tp1993
Rp1994
sg20
I0
sg21
(I10
I14
tp1995
sg23
Nsg24
I0
sg25
I14
sg26
I10
sbag1
(g2
g3
Ntp1996
Rp1997
(dp1998
g7
I00
sg8
I0
sg9
Nsg10
I01
sg11
I0
sg12
S'img/sand.png'
p1999
sg14
g214
sg16
g17
(I550
I700
I50
I50
tp2000
Rp2001
sg20
I0
sg21
(I11
I14
tp2002
sg23
Nsg24
I0
sg25
I14
sg26
I11
sbag1
(g2
g3
Ntp2003
Rp2004
(dp2005
g7
I01
sg8
I0
sg9
Nsg10
I01
sg11
I0
sg12
S'img/wall.png'
p2006
sg14
g15
sg16
g17
(I600
I700
I50
I50
tp2007
Rp2008
sg20
I0
sg21
(I12
I14
tp2009
sg23
Nsg24
I1
sg25
I14
sg26
I12
sbag1
(g2
g3
Ntp2010
Rp2011
(dp2012
g7
I00
sg8
I0
sg9
Nsg10
I01
sg11
I0
sg12
S'img/sand.png'
p2013
sg14
g214
sg16
g17
(I650
I700
I50
I50
tp2014
Rp2015
sg20
I0
sg21
(I13
I14
tp2016
sg23
Nsg24
I0
sg25
I14
sg26
I13
sbag1
(g2
g3
Ntp2017
Rp2018
(dp2019
g7
I00
sg8
I0
sg9
Nsg10
I01
sg11
I0
sg12
S'img/sand.png'
p2020
sg14
g214
sg16
g17
(I700
I700
I50
I50
tp2021
Rp2022
sg20
I0
sg21
(I14
I14
tp2023
sg23
Nsg24
I0
sg25
I14
sg26
I14
sbag1
(g2
g3
Ntp2024
Rp2025
(dp2026
g7
I00
sg8
I0
sg9
Nsg10
I01
sg11
I0
sg12
S'img/sand.png'
p2027
sg14
g214
sg16
g17
(I750
I700
I50
I50
tp2028
Rp2029
sg20
I0
sg21
(I15
I14
tp2030
sg23
Nsg24
I0
sg25
I14
sg26
I15
sbag1
(g2
g3
Ntp2031
Rp2032
(dp2033
g7
I00
sg8
I0
sg9
Nsg10
I01
sg11
I0
sg12
S'img/sand.png'
p2034
sg14
g214
sg16
g17
(I800
I700
I50
I50
tp2035
Rp2036
sg20
I0
sg21
(I16
I14
tp2037
sg23
Nsg24
I0
sg25
I14
sg26
I16
sbag1
(g2
g3
Ntp2038
Rp2039
(dp2040
g7
I00
sg8
I0
sg9
Nsg10
I00
sg11
I0
sg12
S'img/sand.png'
p2041
sg14
g214
sg16
g17
(I850
I700
I50
I50
tp2042
Rp2043
sg20
I0
sg21
(I17
I14
tp2044
sg23
Nsg24
I0
sg25
I14
sg26
I17
sbag1
(g2
g3
Ntp2045
Rp2046
(dp2047
g7
I00
sg8
I0
sg9
Nsg10
I00
sg11
I0
sg12
S'img/sand.png'
p2048
sg14
g214
sg16
g17
(I900
I700
I50
I50
tp2049
Rp2050
sg20
I0
sg21
(I18
I14
tp2051
sg23
Nsg24
I0
sg25
I14
sg26
I18
sbag1
(g2
g3
Ntp2052
Rp2053
(dp2054
g7
I00
sg8
I0
sg9
Nsg10
I00
sg11
I0
sg12
S'img/sand.png'
p2055
sg14
g214
sg16
g17
(I950
I700
I50
I50
tp2056
Rp2057
sg20
I0
sg21
(I19
I14
tp2058
sg23
Nsg24
I0
sg25
I14
sg26
I19
sbag1
(g2
g3
Ntp2059
Rp2060
(dp2061
g7
I00
sg8
I0
sg9
Nsg10
I00
sg11
I0
sg12
S'img/sand.png'
p2062
sg14
g214
sg16
g17
(I1000
I700
I50
I50
tp2063
Rp2064
sg20
I0
sg21
(I20
I14
tp2065
sg23
Nsg24
I0
sg25
I14
sg26
I20
sbag1
(g2
g3
Ntp2066
Rp2067
(dp2068
g7
I00
sg8
I0
sg9
Nsg10
I00
sg11
I0
sg12
S'img/sand.png'
p2069
sg14
g214
sg16
g17
(I1050
I700
I50
I50
tp2070
Rp2071
sg20
I0
sg21
(I21
I14
tp2072
sg23
Nsg24
I0
sg25
I14
sg26
I21
sbag1
(g2
g3
Ntp2073
Rp2074
(dp2075
g7
I00
sg8
I0
sg9
Nsg10
I00
sg11
I0
sg12
S'img/sand.png'
p2076
sg14
g214
sg16
g17
(I1100
I700
I50
I50
tp2077
Rp2078
sg20
I0
sg21
(I22
I14
tp2079
sg23
Nsg24
I0
sg25
I14
sg26
I22
sbag1
(g2
g3
Ntp2080
Rp2081
(dp2082
g7
I00
sg8
I0
sg9
Nsg10
I00
sg11
I0
sg12
S'img/sand.png'
p2083
sg14
g214
sg16
g17
(I1150
I700
I50
I50
tp2084
Rp2085
sg20
I0
sg21
(I23
I14
tp2086
sg23
Nsg24
I0
sg25
I14
sg26
I23
sbag1
(g2
g3
Ntp2087
Rp2088
(dp2089
g7
I01
sg8
I0
sg9
Nsg10
I00
sg11
I0
sg12
S'img/wall.png'
p2090
sg14
g15
sg16
g17
(I1200
I700
I50
I50
tp2091
Rp2092
sg20
I0
sg21
(I24
I14
tp2093
sg23
Nsg24
I1
sg25
I14
sg26
I24
sbag1
(g2
g3
Ntp2094
Rp2095
(dp2096
g7
I01
sg8
I0
sg9
Nsg10
I01
sg11
I0
sg12
S'img/wall.png'
p2097
sg14
g15
sg16
g17
(I0
I750
I50
I50
tp2098
Rp2099
sg20
I0
sg21
(I0
I15
tp2100
sg23
Nsg24
I1
sg25
I15
sg26
I0
sbag1
(g2
g3
Ntp2101
Rp2102
(dp2103
g7
I01
sg8
I0
sg9
Nsg10
I01
sg11
I0
sg12
S'img/wall.png'
p2104
sg14
g15
sg16
g17
(I50
I750
I50
I50
tp2105
Rp2106
sg20
I0
sg21
(I1
I15
tp2107
sg23
Nsg24
I1
sg25
I15
sg26
I1
sbag1
(g2
g3
Ntp2108
Rp2109
(dp2110
g7
I01
sg8
I0
sg9
Nsg10
I01
sg11
I0
sg12
S'img/wall.png'
p2111
sg14
g15
sg16
g17
(I100
I750
I50
I50
tp2112
Rp2113
sg20
I0
sg21
(I2
I15
tp2114
sg23
Nsg24
I1
sg25
I15
sg26
I2
sbag1
(g2
g3
Ntp2115
Rp2116
(dp2117
g7
I01
sg8
I0
sg9
Nsg10
I01
sg11
I0
sg12
S'img/wall.png'
p2118
sg14
g15
sg16
g17
(I150
I750
I50
I50
tp2119
Rp2120
sg20
I0
sg21
(I3
I15
tp2121
sg23
Nsg24
I1
sg25
I15
sg26
I3
sbag1
(g2
g3
Ntp2122
Rp2123
(dp2124
g7
I01
sg8
I0
sg9
Nsg10
I01
sg11
I0
sg12
S'img/wall.png'
p2125
sg14
g15
sg16
g17
(I200
I750
I50
I50
tp2126
Rp2127
sg20
I0
sg21
(I4
I15
tp2128
sg23
Nsg24
I1
sg25
I15
sg26
I4
sbag1
(g2
g3
Ntp2129
Rp2130
(dp2131
g7
I01
sg8
I0
sg9
Nsg10
I01
sg11
I0
sg12
S'img/wall.png'
p2132
sg14
g15
sg16
g17
(I250
I750
I50
I50
tp2133
Rp2134
sg20
I0
sg21
(I5
I15
tp2135
sg23
Nsg24
I1
sg25
I15
sg26
I5
sbag1
(g2
g3
Ntp2136
Rp2137
(dp2138
g7
I01
sg8
I0
sg9
Nsg10
I01
sg11
I0
sg12
S'img/wall.png'
p2139
sg14
g15
sg16
g17
(I300
I750
I50
I50
tp2140
Rp2141
sg20
I0
sg21
(I6
I15
tp2142
sg23
Nsg24
I1
sg25
I15
sg26
I6
sbag1
(g2
g3
Ntp2143
Rp2144
(dp2145
g7
I01
sg8
I0
sg9
Nsg10
I01
sg11
I0
sg12
S'img/wall.png'
p2146
sg14
g15
sg16
g17
(I350
I750
I50
I50
tp2147
Rp2148
sg20
I0
sg21
(I7
I15
tp2149
sg23
Nsg24
I1
sg25
I15
sg26
I7
sbag1
(g2
g3
Ntp2150
Rp2151
(dp2152
g7
I01
sg8
I0
sg9
Nsg10
I01
sg11
I0
sg12
S'img/wall.png'
p2153
sg14
g15
sg16
g17
(I400
I750
I50
I50
tp2154
Rp2155
sg20
I0
sg21
(I8
I15
tp2156
sg23
Nsg24
I1
sg25
I15
sg26
I8
sbag1
(g2
g3
Ntp2157
Rp2158
(dp2159
g7
I01
sg8
I0
sg9
Nsg10
I01
sg11
I0
sg12
S'img/wall.png'
p2160
sg14
g15
sg16
g17
(I450
I750
I50
I50
tp2161
Rp2162
sg20
I0
sg21
(I9
I15
tp2163
sg23
Nsg24
I1
sg25
I15
sg26
I9
sbag1
(g2
g3
Ntp2164
Rp2165
(dp2166
g7
I01
sg8
I0
sg9
Nsg10
I01
sg11
I0
sg12
S'img/wall.png'
p2167
sg14
g15
sg16
g17
(I500
I750
I50
I50
tp2168
Rp2169
sg20
I0
sg21
(I10
I15
tp2170
sg23
Nsg24
I1
sg25
I15
sg26
I10
sbag1
(g2
g3
Ntp2171
Rp2172
(dp2173
g7
I01
sg8
I0
sg9
Nsg10
I01
sg11
I0
sg12
S'img/wall.png'
p2174
sg14
g15
sg16
g17
(I550
I750
I50
I50
tp2175
Rp2176
sg20
I0
sg21
(I11
I15
tp2177
sg23
Nsg24
I1
sg25
I15
sg26
I11
sbag1
(g2
g3
Ntp2178
Rp2179
(dp2180
g7
I00
sg8
I0
sg9
Nsg10
I01
sg11
I0
sg12
S'img/stairsDown.png'
p2181
sg14
S'stairsDown.png'
p2182
sg16
g17
(I600
I750
I50
I50
tp2183
Rp2184
sg20
I0
sg21
(I12
I15
tp2185
sg23
Nsg24
I2
sg25
I15
sg26
I12
sbag1
(g2
g3
Ntp2186
Rp2187
(dp2188
g7
I01
sg8
I0
sg9
Nsg10
I01
sg11
I0
sg12
S'img/wall.png'
p2189
sg14
g15
sg16
g17
(I650
I750
I50
I50
tp2190
Rp2191
sg20
I0
sg21
(I13
I15
tp2192
sg23
Nsg24
I1
sg25
I15
sg26
I13
sbag1
(g2
g3
Ntp2193
Rp2194
(dp2195
g7
I01
sg8
I0
sg9
Nsg10
I01
sg11
I0
sg12
S'img/wall.png'
p2196
sg14
g15
sg16
g17
(I700
I750
I50
I50
tp2197
Rp2198
sg20
I0
sg21
(I14
I15
tp2199
sg23
Nsg24
I1
sg25
I15
sg26
I14
sbag1
(g2
g3
Ntp2200
Rp2201
(dp2202
g7
I01
sg8
I0
sg9
Nsg10
I01
sg11
I0
sg12
S'img/wall.png'
p2203
sg14
g15
sg16
g17
(I750
I750
I50
I50
tp2204
Rp2205
sg20
I0
sg21
(I15
I15
tp2206
sg23
Nsg24
I1
sg25
I15
sg26
I15
sbag1
(g2
g3
Ntp2207
Rp2208
(dp2209
g7
I01
sg8
I0
sg9
Nsg10
I01
sg11
I0
sg12
S'img/wall.png'
p2210
sg14
g15
sg16
g17
(I800
I750
I50
I50
tp2211
Rp2212
sg20
I0
sg21
(I16
I15
tp2213
sg23
Nsg24
I1
sg25
I15
sg26
I16
sbag1
(g2
g3
Ntp2214
Rp2215
(dp2216
g7
I01
sg8
I0
sg9
Nsg10
I00
sg11
I0
sg12
S'img/wall.png'
p2217
sg14
g15
sg16
g17
(I850
I750
I50
I50
tp2218
Rp2219
sg20
I0
sg21
(I17
I15
tp2220
sg23
Nsg24
I1
sg25
I15
sg26
I17
sbag1
(g2
g3
Ntp2221
Rp2222
(dp2223
g7
I01
sg8
I0
sg9
Nsg10
I00
sg11
I0
sg12
S'img/wall.png'
p2224
sg14
g15
sg16
g17
(I900
I750
I50
I50
tp2225
Rp2226
sg20
I0
sg21
(I18
I15
tp2227
sg23
Nsg24
I1
sg25
I15
sg26
I18
sbag1
(g2
g3
Ntp2228
Rp2229
(dp2230
g7
I01
sg8
I0
sg9
Nsg10
I00
sg11
I0
sg12
S'img/wall.png'
p2231
sg14
g15
sg16
g17
(I950
I750
I50
I50
tp2232
Rp2233
sg20
I0
sg21
(I19
I15
tp2234
sg23
Nsg24
I1
sg25
I15
sg26
I19
sbag1
(g2
g3
Ntp2235
Rp2236
(dp2237
g7
I01
sg8
I0
sg9
Nsg10
I00
sg11
I0
sg12
S'img/wall.png'
p2238
sg14
g15
sg16
g17
(I1000
I750
I50
I50
tp2239
Rp2240
sg20
I0
sg21
(I20
I15
tp2241
sg23
Nsg24
I1
sg25
I15
sg26
I20
sbag1
(g2
g3
Ntp2242
Rp2243
(dp2244
g7
I01
sg8
I0
sg9
Nsg10
I00
sg11
I0
sg12
S'img/wall.png'
p2245
sg14
g15
sg16
g17
(I1050
I750
I50
I50
tp2246
Rp2247
sg20
I0
sg21
(I21
I15
tp2248
sg23
Nsg24
I1
sg25
I15
sg26
I21
sbag1
(g2
g3
Ntp2249
Rp2250
(dp2251
g7
I01
sg8
I0
sg9
Nsg10
I00
sg11
I0
sg12
S'img/wall.png'
p2252
sg14
g15
sg16
g17
(I1100
I750
I50
I50
tp2253
Rp2254
sg20
I0
sg21
(I22
I15
tp2255
sg23
Nsg24
I1
sg25
I15
sg26
I22
sbag1
(g2
g3
Ntp2256
Rp2257
(dp2258
g7
I01
sg8
I0
sg9
Nsg10
I00
sg11
I0
sg12
S'img/wall.png'
p2259
sg14
g15
sg16
g17
(I1150
I750
I50
I50
tp2260
Rp2261
sg20
I0
sg21
(I23
I15
tp2262
sg23
Nsg24
I1
sg25
I15
sg26
I23
sbag1
(g2
g3
Ntp2263
Rp2264
(dp2265
g7
I01
sg8
I0
sg9
Nsg10
I00
sg11
I0
sg12
S'img/wall.png'
p2266
sg14
g15
sg16
g17
(I1200
I750
I50
I50
tp2267
Rp2268
sg20
I0
sg21
(I24
I15
tp2269
sg23
Nsg24
I1
sg25
I15
sg26
I24
sbag1
(g2
g3
Ntp2270
Rp2271
(dp2272
g7
I01
sg8
I0
sg9
Nsg10
I01
sg11
I0
sg12
S'img/wall.png'
p2273
sg14
g15
sg16
g17
(I550
I800
I50
I50
tp2274
Rp2275
sg20
I0
sg21
(I11
I16
tp2276
sg23
Nsg24
I1
sg25
I16
sg26
I11
sbag1
(g2
g3
Ntp2277
Rp2278
(dp2279
g7
I01
sg8
I0
sg9
Nsg10
I01
sg11
I0
sg12
S'img/wall.png'
p2280
sg14
g15
sg16
g17
(I600
I800
I50
I50
tp2281
Rp2282
sg20
I0
sg21
(I12
I16
tp2283
sg23
Nsg24
I1
sg25
I16
sg26
I12
sbag1
(g2
g3
Ntp2284
Rp2285
(dp2286
g7
I01
sg8
I0
sg9
Nsg10
I01
sg11
I0
sg12
S'img/wall.png'
p2287
sg14
g15
sg16
g17
(I650
I800
I50
I50
tp2288
Rp2289
sg20
I0
sg21
(I13
I16
tp2290
sg23
Nsg24
I1
sg25
I16
sg26
I13
sbag1
(g2
g3
Ntp2291
Rp2292
(dp2293
g7
I00
sg8
I0
sg9
Nsg10
I01
sg11
I0
sg12
S'img/sand.png'
p2294
sg14
S'sand.png'
p2295
sg16
g17
(I250
I350
I50
I50
tp2296
Rp2297
sg20
I0
sg21
(I0
I0
tp2298
sg23
Nsg24
I0
sg25
I0
sg26
I0
sbag1
(g2
g3
Ntp2299
Rp2300
(dp2301
g7
I00
sg8
I0
sg9
Nsg10
I01
sg11
I0
sg12
S'img/sand.png'
p2302
sg14
S'sand.png'
p2303
sg21
(I0
I0
tp2304
sg20
I0
sg16
g17
(I450
I300
I50
I50
tp2305
Rp2306
sg23
Nsg24
I0
sg25
I0
sg26
I0
sbag1
(g2
g3
Ntp2307
Rp2308
(dp2309
g7
I00
sg8
I0
sg9
Nsg10
I01
sg11
I0
sg12
S'img/sand.png'
p2310
sg14
g2303
sg21
(I0
I0
tp2311
sg20
I0
sg16
g17
(I500
I200
I50
I50
tp2312
Rp2313
sg23
Nsg24
I0
sg25
I0
sg26
I0
sbag1
(g2
g3
Ntp2314
Rp2315
(dp2316
g7
I00
sg8
I0
sg9
Nsg10
I01
sg11
I0
sg12
S'img/sand.png'
p2317
sg14
g2303
sg21
(I0
I0
tp2318
sg20
I0
sg16
g17
(I200
I150
I50
I50
tp2319
Rp2320
sg23
Nsg24
I0
sg25
I0
sg26
I0
sbag1
(g2
g3
Ntp2321
Rp2322
(dp2323
g7
I00
sg8
I0
sg9
Nsg10
I01
sg11
I0
sg12
S'img/sand.png'
p2324
sg14
g2303
sg21
(I0
I0
tp2325
sg20
I0
sg16
g17
(I150
I200
I50
I50
tp2326
Rp2327
sg23
Nsg24
I0
sg25
I0
sg26
I0
sbag1
(g2
g3
Ntp2328
Rp2329
(dp2330
g7
I00
sg8
I0
sg9
Nsg10
I01
sg11
I0
sg12
S'img/sand.png'
p2331
sg14
g2303
sg21
(I0
I0
tp2332
sg20
I0
sg16
g17
(I200
I200
I50
I50
tp2333
Rp2334
sg23
Nsg24
I0
sg25
I0
sg26
I0
sbag1
(g2
g3
Ntp2335
Rp2336
(dp2337
g7
I00
sg8
I0
sg9
Nsg10
I01
sg11
I0
sg12
S'img/sand.png'
p2338
sg14
g2303
sg21
(I0
I0
tp2339
sg20
I0
sg16
g17
(I250
I150
I50
I50
tp2340
Rp2341
sg23
Nsg24
I0
sg25
I0
sg26
I0
sbag1
(g2
g3
Ntp2342
Rp2343
(dp2344
g7
I00
sg8
I0
sg9
Nsg10
I01
sg11
I0
sg12
S'img/sand.png'
p2345
sg14
g2303
sg21
(I0
I0
tp2346
sg20
I0
sg16
g17
(I300
I150
I50
I50
tp2347
Rp2348
sg23
Nsg24
I0
sg25
I0
sg26
I0
sbag1
(g2
g3
Ntp2349
Rp2350
(dp2351
g7
I00
sg8
I0
sg9
Nsg10
I01
sg11
I0
sg12
S'img/sand.png'
p2352
sg14
g2303
sg21
(I0
I0
tp2353
sg20
I0
sg16
g17
(I350
I150
I50
I50
tp2354
Rp2355
sg23
Nsg24
I0
sg25
I0
sg26
I0
sbag1
(g2
g3
Ntp2356
Rp2357
(dp2358
g7
I00
sg8
I0
sg9
Nsg10
I01
sg11
I0
sg12
S'img/sand.png'
p2359
sg14
g2303
sg21
(I0
I0
tp2360
sg20
I0
sg16
g17
(I400
I150
I50
I50
tp2361
Rp2362
sg23
Nsg24
I0
sg25
I0
sg26
I0
sbag1
(g2
g3
Ntp2363
Rp2364
(dp2365
g7
I00
sg8
I0
sg9
Nsg10
I01
sg11
I0
sg12
S'img/sand.png'
p2366
sg14
g2303
sg21
(I0
I0
tp2367
sg20
I0
sg16
g17
(I450
I150
I50
I50
tp2368
Rp2369
sg23
Nsg24
I0
sg25
I0
sg26
I0
sbag1
(g2
g3
Ntp2370
Rp2371
(dp2372
g7
I00
sg8
I0
sg9
Nsg10
I01
sg11
I0
sg12
S'img/sand.png'
p2373
sg14
g2303
sg21
(I0
I0
tp2374
sg20
I0
sg16
g17
(I200
I300
I50
I50
tp2375
Rp2376
sg23
Nsg24
I0
sg25
I0
sg26
I0
sbag1
(g2
g3
Ntp2377
Rp2378
(dp2379
g7
I00
sg8
I0
sg9
Nsg10
I01
sg11
I0
sg12
S'img/sand.png'
p2380
sg14
g2303
sg21
(I0
I0
tp2381
sg20
I0
sg16
g17
(I150
I300
I50
I50
tp2382
Rp2383
sg23
Nsg24
I0
sg25
I0
sg26
I0
sbag1
(g2
g3
Ntp2384
Rp2385
(dp2386
g7
I00
sg8
I0
sg9
Nsg10
I01
sg11
I0
sg12
S'img/sand.png'
p2387
sg14
g2303
sg21
(I0
I0
tp2388
sg20
I0
sg16
g17
(I300
I300
I50
I50
tp2389
Rp2390
sg23
Nsg24
I0
sg25
I0
sg26
I0
sbag1
(g2
g3
Ntp2391
Rp2392
(dp2393
g7
I00
sg8
I0
sg9
Nsg10
I01
sg11
I0
sg12
S'img/sand.png'
p2394
sg14
g2303
sg21
(I0
I0
tp2395
sg20
I0
sg16
g17
(I250
I300
I50
I50
tp2396
Rp2397
sg23
Nsg24
I0
sg25
I0
sg26
I0
sbag1
(g2
g3
Ntp2398
Rp2399
(dp2400
g7
I00
sg8
I0
sg9
Nsg10
I01
sg11
I0
sg12
S'img/sand.png'
p2401
sg14
g2303
sg21
(I0
I0
tp2402
sg20
I0
sg16
g17
(I150
I250
I50
I50
tp2403
Rp2404
sg23
Nsg24
I0
sg25
I0
sg26
I0
sbag1
(g2
g3
Ntp2405
Rp2406
(dp2407
g7
I00
sg8
I0
sg9
Nsg10
I01
sg11
I0
sg12
S'img/sand.png'
p2408
sg14
g2303
sg21
(I0
I0
tp2409
sg20
I0
sg16
g17
(I200
I250
I50
I50
tp2410
Rp2411
sg23
Nsg24
I0
sg25
I0
sg26
I0
sbag1
(g2
g3
Ntp2412
Rp2413
(dp2414
g7
I00
sg8
I0
sg9
Nsg10
I01
sg11
I0
sg12
S'img/sand.png'
p2415
sg14
g2303
sg21
(I0
I0
tp2416
sg20
I0
sg16
g17
(I500
I250
I50
I50
tp2417
Rp2418
sg23
Nsg24
I0
sg25
I0
sg26
I0
sbag1
(g2
g3
Ntp2419
Rp2420
(dp2421
g7
I00
sg8
I0
sg9
Nsg10
I01
sg11
I0
sg12
S'img/sand.png'
p2422
sg14
g2303
sg21
(I0
I0
tp2423
sg20
I0
sg16
g17
(I450
I250
I50
I50
tp2424
Rp2425
sg23
Nsg24
I0
sg25
I0
sg26
I0
sbag1
(g2
g3
Ntp2426
Rp2427
(dp2428
g7
I00
sg8
I0
sg9
Nsg10
I01
sg11
I0
sg12
S'img/sand.png'
p2429
sg14
g2303
sg21
(I0
I0
tp2430
sg20
I0
sg16
g17
(I250
I250
I50
I50
tp2431
Rp2432
sg23
Nsg24
I0
sg25
I0
sg26
I0
sbag1
(g2
g3
Ntp2433
Rp2434
(dp2435
g7
I00
sg8
I0
sg9
Nsg10
I01
sg11
I0
sg12
S'img/sand.png'
p2436
sg14
g2303
sg21
(I0
I0
tp2437
sg20
I0
sg16
g17
(I450
I200
I50
I50
tp2438
Rp2439
sg23
Nsg24
I0
sg25
I0
sg26
I0
sbag1
(g2
g3
Ntp2440
Rp2441
(dp2442
g7
I00
sg8
I0
sg9
Nsg10
I01
sg11
I0
sg12
S'img/sand.png'
p2443
sg14
g2303
sg21
(I0
I0
tp2444
sg20
I0
sg16
g17
(I350
I250
I50
I50
tp2445
Rp2446
sg23
Nsg24
I0
sg25
I0
sg26
I0
sbag1
(g2
g3
Ntp2447
Rp2448
(dp2449
g7
I00
sg8
I0
sg9
Nsg10
I01
sg11
I0
sg12
S'img/sand.png'
p2450
sg14
g2303
sg21
(I0
I0
tp2451
sg20
I0
sg16
g17
(I300
I250
I50
I50
tp2452
Rp2453
sg23
Nsg24
I0
sg25
I0
sg26
I0
sbag1
(g2
g3
Ntp2454
Rp2455
(dp2456
g7
I00
sg8
I0
sg9
Nsg10
I01
sg11
I0
sg12
S'img/sand.png'
p2457
sg14
g2303
sg21
(I0
I0
tp2458
sg20
I0
sg16
g17
(I250
I200
I50
I50
tp2459
Rp2460
sg23
Nsg24
I0
sg25
I0
sg26
I0
sbag1
(g2
g3
Ntp2461
Rp2462
(dp2463
g7
I00
sg8
I0
sg9
Nsg10
I01
sg11
I0
sg12
S'img/sand.png'
p2464
sg14
g2303
sg21
(I0
I0
tp2465
sg20
I0
sg16
g17
(I300
I200
I50
I50
tp2466
Rp2467
sg23
Nsg24
I0
sg25
I0
sg26
I0
sbag1
(g2
g3
Ntp2468
Rp2469
(dp2470
g7
I00
sg8
I0
sg9
Nsg10
I01
sg11
I0
sg12
S'img/sand.png'
p2471
sg14
g2303
sg21
(I0
I0
tp2472
sg20
I0
sg16
g17
(I350
I200
I50
I50
tp2473
Rp2474
sg23
Nsg24
I0
sg25
I0
sg26
I0
sbag1
(g2
g3
Ntp2475
Rp2476
(dp2477
g7
I00
sg8
I0
sg9
Nsg10
I01
sg11
I0
sg12
S'img/sand.png'
p2478
sg14
g2303
sg21
(I0
I0
tp2479
sg20
I0
sg16
g17
(I400
I200
I50
I50
tp2480
Rp2481
sg23
Nsg24
I0
sg25
I0
sg26
I0
sbag1
(g2
g3
Ntp2482
Rp2483
(dp2484
g7
I00
sg8
I0
sg9
Nsg10
I01
sg11
I0
sg12
S'img/sand.png'
p2485
sg14
g2303
sg21
(I0
I0
tp2486
sg20
I0
sg16
g17
(I400
I250
I50
I50
tp2487
Rp2488
sg23
Nsg24
I0
sg25
I0
sg26
I0
sbag1
(g2
g3
Ntp2489
Rp2490
(dp2491
g7
I00
sg8
I0
sg9
Nsg10
I01
sg11
I0
sg12
S'img/sand.png'
p2492
sg14
g2303
sg21
(I0
I0
tp2493
sg20
I0
sg16
g17
(I400
I300
I50
I50
tp2494
Rp2495
sg23
Nsg24
I0
sg25
I0
sg26
I0
sbag1
(g2
g3
Ntp2496
Rp2497
(dp2498
g7
I00
sg8
I0
sg9
Nsg10
I01
sg11
I0
sg12
S'img/sand.png'
p2499
sg14
g2303
sg21
(I0
I0
tp2500
sg20
I0
sg16
g17
(I350
I300
I50
I50
tp2501
Rp2502
sg23
Nsg24
I0
sg25
I0
sg26
I0
sbag1
(g2
g3
Ntp2503
Rp2504
(dp2505
g7
I00
sg8
I0
sg9
Nsg10
I01
sg11
I0
sg12
S'img/sand.png'
p2506
sg14
g2303
sg21
(I0
I0
tp2507
sg20
I0
sg16
g17
(I300
I350
I50
I50
tp2508
Rp2509
sg23
Nsg24
I0
sg25
I0
sg26
I0
sbag1
(g2
g3
Ntp2510
Rp2511
(dp2512
g7
I00
sg8
I0
sg9
Nsg10
I01
sg11
I0
sg12
S'img/sand.png'
p2513
sg14
g2303
sg21
(I0
I0
tp2514
sg20
I0
sg16
g17
(I350
I350
I50
I50
tp2515
Rp2516
sg23
Nsg24
I0
sg25
I0
sg26
I0
sbag1
(g2
g3
Ntp2517
Rp2518
(dp2519
g7
I00
sg8
I0
sg9
Nsg10
I01
sg11
I0
sg12
S'img/sand.png'
p2520
sg14
g2303
sg21
(I0
I0
tp2521
sg20
I0
sg16
g17
(I400
I350
I50
I50
tp2522
Rp2523
sg23
Nsg24
I0
sg25
I0
sg26
I0
sbag1
(g2
g3
Ntp2524
Rp2525
(dp2526
g7
I00
sg8
I0
sg9
Nsg10
I01
sg11
I0
sg12
S'img/sand.png'
p2527
sg14
g2303
sg21
(I0
I0
tp2528
sg20
I0
sg16
g17
(I450
I350
I50
I50
tp2529
Rp2530
sg23
Nsg24
I0
sg25
I0
sg26
I0
sbag1
(g2
g3
Ntp2531
Rp2532
(dp2533
g7
I00
sg8
I0
sg9
Nsg10
I01
sg11
I0
sg12
S'img/sand.png'
p2534
sg14
g2303
sg21
(I0
I0
tp2535
sg20
I0
sg16
g17
(I600
I350
I50
I50
tp2536
Rp2537
sg23
Nsg24
I0
sg25
I0
sg26
I0
sbag1
(g2
g3
Ntp2538
Rp2539
(dp2540
g7
I00
sg8
I0
sg9
Nsg10
I01
sg11
I0
sg12
S'img/sand.png'
p2541
sg14
g2303
sg21
(I0
I0
tp2542
sg20
I0
sg16
g17
(I550
I350
I50
I50
tp2543
Rp2544
sg23
Nsg24
I0
sg25
I0
sg26
I0
sbag1
(g2
g3
Ntp2545
Rp2546
(dp2547
g7
I00
sg8
I0
sg9
Nsg10
I01
sg11
I0
sg12
S'img/sand.png'
p2548
sg14
g2303
sg21
(I0
I0
tp2549
sg20
I0
sg16
g17
(I500
I350
I50
I50
tp2550
Rp2551
sg23
Nsg24
I0
sg25
I0
sg26
I0
sbag1
(g2
g3
Ntp2552
Rp2553
(dp2554
g7
I00
sg8
I0
sg9
Nsg10
I01
sg11
I0
sg12
S'img/sand.png'
p2555
sg14
g2303
sg21
(I0
I0
tp2556
sg20
I0
sg16
g17
(I550
I200
I50
I50
tp2557
Rp2558
sg23
Nsg24
I0
sg25
I0
sg26
I0
sbag1
(g2
g3
Ntp2559
Rp2560
(dp2561
g7
I00
sg8
I0
sg9
Nsg10
I01
sg11
I0
sg12
S'img/sand.png'
p2562
sg14
g2303
sg21
(I0
I0
tp2563
sg20
I0
sg16
g17
(I600
I200
I50
I50
tp2564
Rp2565
sg23
Nsg24
I0
sg25
I0
sg26
I0
sbag1
(g2
g3
Ntp2566
Rp2567
(dp2568
g7
I00
sg8
I0
sg9
Nsg10
I01
sg11
I0
sg12
S'img/sand.png'
p2569
sg14
g2303
sg21
(I0
I0
tp2570
sg20
I0
sg16
g17
(I600
I250
I50
I50
tp2571
Rp2572
sg23
Nsg24
I0
sg25
I0
sg26
I0
sbag1
(g2
g3
Ntp2573
Rp2574
(dp2575
g7
I00
sg8
I0
sg9
Nsg10
I01
sg11
I0
sg12
S'img/sand.png'
p2576
sg14
g2303
sg21
(I0
I0
tp2577
sg20
I0
sg16
g17
(I650
I200
I50
I50
tp2578
Rp2579
sg23
Nsg24
I0
sg25
I0
sg26
I0
sbag1
(g2
g3
Ntp2580
Rp2581
(dp2582
g7
I00
sg8
I0
sg9
Nsg10
I01
sg11
I0
sg12
S'img/sand.png'
p2583
sg14
g2303
sg21
(I0
I0
tp2584
sg20
I0
sg16
g17
(I700
I200
I50
I50
tp2585
Rp2586
sg23
Nsg24
I0
sg25
I0
sg26
I0
sbag1
(g2
g3
Ntp2587
Rp2588
(dp2589
g7
I00
sg8
I0
sg9
Nsg10
I01
sg11
I0
sg12
S'img/sand.png'
p2590
sg14
g2303
sg21
(I0
I0
tp2591
sg20
I0
sg16
g17
(I750
I200
I50
I50
tp2592
Rp2593
sg23
Nsg24
I0
sg25
I0
sg26
I0
sbag1
(g2
g3
Ntp2594
Rp2595
(dp2596
g7
I00
sg8
I0
sg9
Nsg10
I01
sg11
I0
sg12
S'img/sand.png'
p2597
sg14
g2303
sg21
(I0
I0
tp2598
sg20
I0
sg16
g17
(I800
I200
I50
I50
tp2599
Rp2600
sg23
Nsg24
I0
sg25
I0
sg26
I0
sbag1
(g2
g3
Ntp2601
Rp2602
(dp2603
g7
I00
sg8
I0
sg9
Nsg10
I01
sg11
I0
sg12
S'img/sand.png'
p2604
sg14
g2303
sg21
(I0
I0
tp2605
sg20
I0
sg16
g17
(I800
I250
I50
I50
tp2606
Rp2607
sg23
Nsg24
I0
sg25
I0
sg26
I0
sbag1
(g2
g3
Ntp2608
Rp2609
(dp2610
g7
I00
sg8
I0
sg9
Nsg10
I01
sg11
I0
sg12
S'img/sand.png'
p2611
sg14
g2303
sg21
(I0
I0
tp2612
sg20
I0
sg16
g17
(I750
I350
I50
I50
tp2613
Rp2614
sg23
Nsg24
I0
sg25
I0
sg26
I0
sbag1
(g2
g3
Ntp2615
Rp2616
(dp2617
g7
I00
sg8
I0
sg9
Nsg10
I01
sg11
I0
sg12
S'img/sand.png'
p2618
sg14
g2303
sg21
(I0
I0
tp2619
sg20
I0
sg16
g17
(I800
I300
I50
I50
tp2620
Rp2621
sg23
Nsg24
I0
sg25
I0
sg26
I0
sbag1
(g2
g3
Ntp2622
Rp2623
(dp2624
g7
I00
sg8
I0
sg9
Nsg10
I01
sg11
I0
sg12
S'img/sand.png'
p2625
sg14
g2303
sg21
(I0
I0
tp2626
sg20
I0
sg16
g17
(I750
I300
I50
I50
tp2627
Rp2628
sg23
Nsg24
I0
sg25
I0
sg26
I0
sbag1
(g2
g3
Ntp2629
Rp2630
(dp2631
g7
I00
sg8
I0
sg9
Nsg10
I01
sg11
I0
sg12
S'img/sand.png'
p2632
sg14
g2303
sg21
(I0
I0
tp2633
sg20
I0
sg16
g17
(I750
I250
I50
I50
tp2634
Rp2635
sg23
Nsg24
I0
sg25
I0
sg26
I0
sbag1
(g2
g3
Ntp2636
Rp2637
(dp2638
g7
I00
sg8
I0
sg9
Nsg10
I01
sg11
I0
sg12
S'img/sand.png'
p2639
sg14
g2303
sg21
(I0
I0
tp2640
sg20
I0
sg16
g17
(I700
I250
I50
I50
tp2641
Rp2642
sg23
Nsg24
I0
sg25
I0
sg26
I0
sbag1
(g2
g3
Ntp2643
Rp2644
(dp2645
g7
I00
sg8
I0
sg9
Nsg10
I01
sg11
I0
sg12
S'img/sand.png'
p2646
sg14
g2303
sg21
(I0
I0
tp2647
sg20
I0
sg16
g17
(I700
I300
I50
I50
tp2648
Rp2649
sg23
Nsg24
I0
sg25
I0
sg26
I0
sbag1
(g2
g3
Ntp2650
Rp2651
(dp2652
g7
I00
sg8
I0
sg9
Nsg10
I01
sg11
I0
sg12
S'img/sand.png'
p2653
sg14
g2303
sg21
(I0
I0
tp2654
sg20
I0
sg16
g17
(I750
I500
I50
I50
tp2655
Rp2656
sg23
Nsg24
I0
sg25
I0
sg26
I0
sbag1
(g2
g3
Ntp2657
Rp2658
(dp2659
g7
I00
sg8
I0
sg9
Nsg10
I01
sg11
I0
sg12
S'img/sand.png'
p2660
sg14
g2303
sg21
(I0
I0
tp2661
sg20
I0
sg16
g17
(I750
I550
I50
I50
tp2662
Rp2663
sg23
Nsg24
I0
sg25
I0
sg26
I0
sbag1
(g2
g3
Ntp2664
Rp2665
(dp2666
g7
I00
sg8
I0
sg9
Nsg10
I01
sg11
I0
sg12
S'img/sand.png'
p2667
sg14
g2303
sg21
(I0
I0
tp2668
sg20
I0
sg16
g17
(I750
I600
I50
I50
tp2669
Rp2670
sg23
Nsg24
I0
sg25
I0
sg26
I0
sbag1
(g2
g3
Ntp2671
Rp2672
(dp2673
g7
I00
sg8
I0
sg9
Nsg10
I01
sg11
I0
sg12
S'img/sand.png'
p2674
sg14
g2303
sg21
(I0
I0
tp2675
sg20
I0
sg16
g17
(I700
I650
I50
I50
tp2676
Rp2677
sg23
Nsg24
I0
sg25
I0
sg26
I0
sbag1
(g2
g3
Ntp2678
Rp2679
(dp2680
g7
I00
sg8
I0
sg9
Nsg10
I01
sg11
I0
sg12
S'img/sand.png'
p2681
sg14
g2303
sg21
(I0
I0
tp2682
sg20
I0
sg16
g17
(I700
I600
I50
I50
tp2683
Rp2684
sg23
Nsg24
I0
sg25
I0
sg26
I0
sbag1
(g2
g3
Ntp2685
Rp2686
(dp2687
g7
I00
sg8
I0
sg9
Nsg10
I01
sg11
I0
sg12
S'img/sand.png'
p2688
sg14
g2303
sg21
(I0
I0
tp2689
sg20
I0
sg16
g17
(I700
I550
I50
I50
tp2690
Rp2691
sg23
Nsg24
I0
sg25
I0
sg26
I0
sbag1
(g2
g3
Ntp2692
Rp2693
(dp2694
g7
I00
sg8
I0
sg9
Nsg10
I01
sg11
I0
sg12
S'img/sand.png'
p2695
sg14
g2303
sg21
(I0
I0
tp2696
sg20
I0
sg16
g17
(I700
I500
I50
I50
tp2697
Rp2698
sg23
Nsg24
I0
sg25
I0
sg26
I0
sbag1
(g2
g3
Ntp2699
Rp2700
(dp2701
g7
I00
sg8
I0
sg9
Nsg10
I01
sg11
I0
sg12
S'img/sand.png'
p2702
sg14
g2303
sg21
(I0
I0
tp2703
sg20
I0
sg16
g17
(I700
I400
I50
I50
tp2704
Rp2705
sg23
Nsg24
I0
sg25
I0
sg26
I0
sbag1
(g2
g3
Ntp2706
Rp2707
(dp2708
g7
I00
sg8
I0
sg9
Nsg10
I01
sg11
I0
sg12
S'img/sand.png'
p2709
sg14
g2303
sg21
(I0
I0
tp2710
sg20
I0
sg16
g17
(I700
I350
I50
I50
tp2711
Rp2712
sg23
Nsg24
I0
sg25
I0
sg26
I0
sbag1
(g2
g3
Ntp2713
Rp2714
(dp2715
g7
I00
sg8
I0
sg9
Nsg10
I01
sg11
I0
sg12
S'img/sand.png'
p2716
sg14
g2303
sg21
(I0
I0
tp2717
sg20
I0
sg16
g17
(I650
I350
I50
I50
tp2718
Rp2719
sg23
Nsg24
I0
sg25
I0
sg26
I0
sbag1
(g2
g3
Ntp2720
Rp2721
(dp2722
g7
I00
sg8
I0
sg9
Nsg10
I01
sg11
I0
sg12
S'img/sand.png'
p2723
sg14
g2303
sg21
(I0
I0
tp2724
sg20
I0
sg16
g17
(I650
I400
I50
I50
tp2725
Rp2726
sg23
Nsg24
I0
sg25
I0
sg26
I0
sbag1
(g2
g3
Ntp2727
Rp2728
(dp2729
g7
I00
sg8
I0
sg9
Nsg10
I01
sg11
I0
sg12
S'img/sand.png'
p2730
sg14
g2303
sg21
(I0
I0
tp2731
sg20
I0
sg16
g17
(I600
I400
I50
I50
tp2732
Rp2733
sg23
Nsg24
I0
sg25
I0
sg26
I0
sbag1
(g2
g3
Ntp2734
Rp2735
(dp2736
g7
I00
sg8
I0
sg9
Nsg10
I01
sg11
I0
sg12
S'img/sand.png'
p2737
sg14
g2303
sg21
(I0
I0
tp2738
sg20
I0
sg16
g17
(I700
I450
I50
I50
tp2739
Rp2740
sg23
Nsg24
I0
sg25
I0
sg26
I0
sbag1
(g2
g3
Ntp2741
Rp2742
(dp2743
g7
I00
sg8
I0
sg9
Nsg10
I01
sg11
I0
sg12
S'img/sand.png'
p2744
sg14
g2303
sg21
(I0
I0
tp2745
sg20
I0
sg16
g17
(I650
I450
I50
I50
tp2746
Rp2747
sg23
Nsg24
I0
sg25
I0
sg26
I0
sbag1
(g2
g3
Ntp2748
Rp2749
(dp2750
g7
I00
sg8
I0
sg9
Nsg10
I01
sg11
I0
sg12
S'img/sand.png'
p2751
sg14
g2303
sg21
(I0
I0
tp2752
sg20
I0
sg16
g17
(I600
I450
I50
I50
tp2753
Rp2754
sg23
Nsg24
I0
sg25
I0
sg26
I0
sbag1
(g2
g3
Ntp2755
Rp2756
(dp2757
g7
I00
sg8
I0
sg9
Nsg10
I01
sg11
I0
sg12
S'img/sand.png'
p2758
sg14
g2303
sg21
(I0
I0
tp2759
sg20
I0
sg16
g17
(I550
I450
I50
I50
tp2760
Rp2761
sg23
Nsg24
I0
sg25
I0
sg26
I0
sbag1
(g2
g3
Ntp2762
Rp2763
(dp2764
g7
I00
sg8
I0
sg9
Nsg10
I01
sg11
I0
sg12
S'img/sand.png'
p2765
sg14
g2303
sg21
(I0
I0
tp2766
sg20
I0
sg16
g17
(I500
I450
I50
I50
tp2767
Rp2768
sg23
Nsg24
I0
sg25
I0
sg26
I0
sbag1
(g2
g3
Ntp2769
Rp2770
(dp2771
g7
I00
sg8
I0
sg9
Nsg10
I01
sg11
I0
sg12
S'img/sand.png'
p2772
sg14
g2303
sg21
(I0
I0
tp2773
sg20
I0
sg16
g17
(I450
I450
I50
I50
tp2774
Rp2775
sg23
Nsg24
I0
sg25
I0
sg26
I0
sbag1
(g2
g3
Ntp2776
Rp2777
(dp2778
g7
I00
sg8
I0
sg9
Nsg10
I01
sg11
I0
sg12
S'img/sand.png'
p2779
sg14
g2303
sg21
(I0
I0
tp2780
sg20
I0
sg16
g17
(I400
I450
I50
I50
tp2781
Rp2782
sg23
Nsg24
I0
sg25
I0
sg26
I0
sbag1
(g2
g3
Ntp2783
Rp2784
(dp2785
g7
I00
sg8
I0
sg9
Nsg10
I01
sg11
I0
sg12
S'img/sand.png'
p2786
sg14
g2303
sg21
(I0
I0
tp2787
sg20
I0
sg16
g17
(I350
I450
I50
I50
tp2788
Rp2789
sg23
Nsg24
I0
sg25
I0
sg26
I0
sbag1
(g2
g3
Ntp2790
Rp2791
(dp2792
g7
I00
sg8
I0
sg9
Nsg10
I01
sg11
I0
sg12
S'img/sand.png'
p2793
sg14
g2303
sg21
(I0
I0
tp2794
sg20
I0
sg16
g17
(I300
I450
I50
I50
tp2795
Rp2796
sg23
Nsg24
I0
sg25
I0
sg26
I0
sbag1
(g2
g3
Ntp2797
Rp2798
(dp2799
g7
I00
sg8
I0
sg9
Nsg10
I01
sg11
I0
sg12
S'img/sand.png'
p2800
sg14
g2303
sg21
(I0
I0
tp2801
sg20
I0
sg16
g17
(I250
I450
I50
I50
tp2802
Rp2803
sg23
Nsg24
I0
sg25
I0
sg26
I0
sbag1
(g2
g3
Ntp2804
Rp2805
(dp2806
g7
I00
sg8
I0
sg9
Nsg10
I01
sg11
I0
sg12
S'img/sand.png'
p2807
sg14
g2303
sg21
(I0
I0
tp2808
sg20
I0
sg16
g17
(I200
I450
I50
I50
tp2809
Rp2810
sg23
Nsg24
I0
sg25
I0
sg26
I0
sbag1
(g2
g3
Ntp2811
Rp2812
(dp2813
g7
I00
sg8
I0
sg9
Nsg10
I01
sg11
I0
sg12
S'img/sand.png'
p2814
sg14
g2303
sg21
(I0
I0
tp2815
sg20
I0
sg16
g17
(I200
I400
I50
I50
tp2816
Rp2817
sg23
Nsg24
I0
sg25
I0
sg26
I0
sbag1
(g2
g3
Ntp2818
Rp2819
(dp2820
g7
I00
sg8
I0
sg9
Nsg10
I01
sg11
I0
sg12
S'img/sand.png'
p2821
sg14
g2303
sg21
(I0
I0
tp2822
sg20
I0
sg16
g17
(I150
I400
I50
I50
tp2823
Rp2824
sg23
Nsg24
I0
sg25
I0
sg26
I0
sbag1
(g2
g3
Ntp2825
Rp2826
(dp2827
g7
I00
sg8
I0
sg9
Nsg10
I01
sg11
I0
sg12
S'img/sand.png'
p2828
sg14
g2303
sg21
(I0
I0
tp2829
sg20
I0
sg16
g17
(I100
I400
I50
I50
tp2830
Rp2831
sg23
Nsg24
I0
sg25
I0
sg26
I0
sbag1
(g2
g3
Ntp2832
Rp2833
(dp2834
g7
I00
sg8
I0
sg9
Nsg10
I01
sg11
I0
sg12
S'img/sand.png'
p2835
sg14
g2303
sg21
(I0
I0
tp2836
sg20
I0
sg16
g17
(I100
I450
I50
I50
tp2837
Rp2838
sg23
Nsg24
I0
sg25
I0
sg26
I0
sbag1
(g2
g3
Ntp2839
Rp2840
(dp2841
g7
I00
sg8
I0
sg9
Nsg10
I01
sg11
I0
sg12
S'img/sand.png'
p2842
sg14
g2303
sg21
(I0
I0
tp2843
sg20
I0
sg16
g17
(I50
I450
I50
I50
tp2844
Rp2845
sg23
Nsg24
I0
sg25
I0
sg26
I0
sba.