(lp0
ccopy_reg
_reconstructor
p1
(cMap
Blocks
p2
c__builtin__
object
p3
Ntp4
Rp5
(dp6
S'is_wall'
p7
I01
sS'hx'
p8
I0
sS'missed'
p9
I01
sS'parent'
p10
NsS'onScreen'
p11
I01
sS'fx'
p12
I0
sS'img_file'
p13
S'img/wall.png'
p14
sS'pic'
p15
S'wall.png'
p16
sS'rect'
p17
cpygame
__rect_constructor
p18
(I0
I0
I50
I50
tp19
Rp20
sS'gx'
p21
I0
sS'location'
p22
(I0
I0
tp23
sS'image'
p24
NsS'ID'
p25
I1
sS'tile_y'
p26
I0
sS'tile_x'
p27
I0
sbag1
(g2
g3
Ntp28
Rp29
(dp30
g7
I01
sg8
I0
sg9
I01
sg10
Nsg11
I01
sg12
I0
sg13
S'img/wall.png'
p31
sg15
g16
sg17
g18
(I50
I0
I50
I50
tp32
Rp33
sg21
I0
sg22
(I1
I0
tp34
sg24
Nsg25
I1
sg26
I0
sg27
I1
sbag1
(g2
g3
Ntp35
Rp36
(dp37
g7
I01
sg8
I0
sg9
I01
sg10
Nsg11
I01
sg12
I0
sg13
S'img/wall.png'
p38
sg15
g16
sg17
g18
(I100
I0
I50
I50
tp39
Rp40
sg21
I0
sg22
(I2
I0
tp41
sg24
Nsg25
I1
sg26
I0
sg27
I2
sbag1
(g2
g3
Ntp42
Rp43
(dp44
g7
I01
sg8
I0
sg9
I01
sg10
Nsg11
I01
sg12
I0
sg13
S'img/wall.png'
p45
sg15
g16
sg17
g18
(I400
I0
I50
I50
tp46
Rp47
sg21
I0
sg22
(I8
I0
tp48
sg24
Nsg25
I1
sg26
I0
sg27
I8
sbag1
(g2
g3
Ntp49
Rp50
(dp51
g7
I01
sg8
I0
sg9
I01
sg10
Nsg11
I01
sg12
I0
sg13
S'img/wall.png'
p52
sg15
g16
sg17
g18
(I450
I0
I50
I50
tp53
Rp54
sg21
I0
sg22
(I9
I0
tp55
sg24
Nsg25
I1
sg26
I0
sg27
I9
sbag1
(g2
g3
Ntp56
Rp57
(dp58
g7
I01
sg8
I0
sg9
I01
sg10
Nsg11
I01
sg12
I0
sg13
S'img/wall.png'
p59
sg15
g16
sg17
g18
(I500
I0
I50
I50
tp60
Rp61
sg21
I0
sg22
(I10
I0
tp62
sg24
Nsg25
I1
sg26
I0
sg27
I10
sbag1
(g2
g3
Ntp63
Rp64
(dp65
g7
I01
sg8
I0
sg9
I01
sg10
Nsg11
I01
sg12
I0
sg13
S'img/wall.png'
p66
sg15
g16
sg17
g18
(I550
I0
I50
I50
tp67
Rp68
sg21
I0
sg22
(I11
I0
tp69
sg24
Nsg25
I1
sg26
I0
sg27
I11
sbag1
(g2
g3
Ntp70
Rp71
(dp72
g7
I01
sg8
I0
sg9
I01
sg10
Nsg11
I01
sg12
I0
sg13
S'img/wall.png'
p73
sg15
g16
sg17
g18
(I600
I0
I50
I50
tp74
Rp75
sg21
I0
sg22
(I12
I0
tp76
sg24
Nsg25
I1
sg26
I0
sg27
I12
sbag1
(g2
g3
Ntp77
Rp78
(dp79
g7
I01
sg8
I0
sg9
I01
sg10
Nsg11
I01
sg12
I0
sg13
S'img/wall.png'
p80
sg15
g16
sg17
g18
(I650
I0
I50
I50
tp81
Rp82
sg21
I0
sg22
(I13
I0
tp83
sg24
Nsg25
I1
sg26
I0
sg27
I13
sbag1
(g2
g3
Ntp84
Rp85
(dp86
g7
I01
sg8
I0
sg9
I01
sg10
Nsg11
I01
sg12
I0
sg13
S'img/wall.png'
p87
sg15
g16
sg17
g18
(I700
I0
I50
I50
tp88
Rp89
sg21
I0
sg22
(I14
I0
tp90
sg24
Nsg25
I1
sg26
I0
sg27
I14
sbag1
(g2
g3
Ntp91
Rp92
(dp93
g7
I01
sg8
I0
sg9
I01
sg10
Nsg11
I01
sg12
I0
sg13
S'img/wall.png'
p94
sg15
g16
sg17
g18
(I750
I0
I50
I50
tp95
Rp96
sg21
I0
sg22
(I15
I0
tp97
sg24
Nsg25
I1
sg26
I0
sg27
I15
sbag1
(g2
g3
Ntp98
Rp99
(dp100
g7
I01
sg8
I0
sg9
I01
sg10
Nsg11
I01
sg12
I0
sg13
S'img/wall.png'
p101
sg15
g16
sg17
g18
(I800
I0
I50
I50
tp102
Rp103
sg21
I0
sg22
(I16
I0
tp104
sg24
Nsg25
I1
sg26
I0
sg27
I16
sbag1
(g2
g3
Ntp105
Rp106
(dp107
g7
I01
sg8
I0
sg9
I01
sg10
Nsg11
I01
sg12
I0
sg13
S'img/wall.png'
p108
sg15
g16
sg17
g18
(I850
I0
I50
I50
tp109
Rp110
sg21
I0
sg22
(I17
I0
tp111
sg24
Nsg25
I1
sg26
I0
sg27
I17
sbag1
(g2
g3
Ntp112
Rp113
(dp114
g7
I01
sg8
I0
sg9
I01
sg10
Nsg11
I00
sg12
I0
sg13
S'img/wall.png'
p115
sg15
g16
sg17
g18
(I900
I0
I50
I50
tp116
Rp117
sg21
I0
sg22
(I18
I0
tp118
sg24
Nsg25
I1
sg26
I0
sg27
I18
sbag1
(g2
g3
Ntp119
Rp120
(dp121
g7
I01
sg8
I0
sg9
I01
sg10
Nsg11
I00
sg12
I0
sg13
S'img/wall.png'
p122
sg15
g16
sg17
g18
(I950
I0
I50
I50
tp123
Rp124
sg21
I0
sg22
(I19
I0
tp125
sg24
Nsg25
I1
sg26
I0
sg27
I19
sbag1
(g2
g3
Ntp126
Rp127
(dp128
g7
I01
sg8
I0
sg9
I01
sg10
Nsg11
I00
sg12
I0
sg13
S'img/wall.png'
p129
sg15
g16
sg17
g18
(I1000
I0
I50
I50
tp130
Rp131
sg21
I0
sg22
(I20
I0
tp132
sg24
Nsg25
I1
sg26
I0
sg27
I20
sbag1
(g2
g3
Ntp133
Rp134
(dp135
g7
I01
sg8
I0
sg9
I01
sg10
Nsg11
I00
sg12
I0
sg13
S'img/wall.png'
p136
sg15
g16
sg17
g18
(I1050
I0
I50
I50
tp137
Rp138
sg21
I0
sg22
(I21
I0
tp139
sg24
Nsg25
I1
sg26
I0
sg27
I21
sbag1
(g2
g3
Ntp140
Rp141
(dp142
g7
I01
sg8
I0
sg9
I01
sg10
Nsg11
I00
sg12
I0
sg13
S'img/wall.png'
p143
sg15
g16
sg17
g18
(I1100
I0
I50
I50
tp144
Rp145
sg21
I0
sg22
(I22
I0
tp146
sg24
Nsg25
I1
sg26
I0
sg27
I22
sbag1
(g2
g3
Ntp147
Rp148
(dp149
g7
I01
sg8
I0
sg9
I01
sg10
Nsg11
I00
sg12
I0
sg13
S'img/wall.png'
p150
sg15
g16
sg17
g18
(I1150
I0
I50
I50
tp151
Rp152
sg21
I0
sg22
(I23
I0
tp153
sg24
Nsg25
I1
sg26
I0
sg27
I23
sbag1
(g2
g3
Ntp154
Rp155
(dp156
g7
I01
sg8
I0
sg9
I01
sg10
Nsg11
I00
sg12
I0
sg13
S'img/wall.png'
p157
sg15
g16
sg17
g18
(I1200
I0
I50
I50
tp158
Rp159
sg21
I0
sg22
(I24
I0
tp160
sg24
Nsg25
I1
sg26
I0
sg27
I24
sbag1
(g2
g3
Ntp161
Rp162
(dp163
g7
I01
sg8
I0
sg9
I01
sg10
Nsg11
I01
sg12
I0
sg13
S'img/wall.png'
p164
sg15
g16
sg17
g18
(I0
I50
I50
I50
tp165
Rp166
sg21
I0
sg22
(I0
I1
tp167
sg24
Nsg25
I1
sg26
I1
sg27
I0
sbag1
(g2
g3
Ntp168
Rp169
(dp170
g7
I00
sg8
I0
sg9
I01
sg10
Nsg11
I01
sg12
I0
sg13
S'img/stairsBroken.png'
p171
sg15
S'stairsBroken.png'
p172
sg17
g18
(I50
I50
I50
I50
tp173
Rp174
sg21
I0
sg22
(I1
I1
tp175
sg24
Nsg25
I3
sg26
I1
sg27
I1
sbag1
(g2
g3
Ntp176
Rp177
(dp178
g7
I00
sg8
I0
sg9
I01
sg10
Nsg11
I01
sg12
I0
sg13
S'img/sand.png'
p179
sg15
S'sand.png'
p180
sg17
g18
(I100
I50
I50
I50
tp181
Rp182
sg21
I0
sg22
(I2
I1
tp183
sg24
Nsg25
I0
sg26
I1
sg27
I2
sbag1
(g2
g3
Ntp184
Rp185
(dp186
g7
I00
sg8
I0
sg9
I01
sg10
Nsg11
I01
sg12
I0
sg13
S'img/sand.png'
p187
sg15
g180
sg17
g18
(I450
I50
I50
I50
tp188
Rp189
sg21
I0
sg22
(I9
I1
tp190
sg24
Nsg25
I0
sg26
I1
sg27
I9
sbag1
(g2
g3
Ntp191
Rp192
(dp193
g7
I00
sg8
I0
sg9
I01
sg10
Nsg11
I01
sg12
I0
sg13
S'img/sand.png'
p194
sg15
g180
sg17
g18
(I500
I50
I50
I50
tp195
Rp196
sg21
I0
sg22
(I10
I1
tp197
sg24
Nsg25
I0
sg26
I1
sg27
I10
sbag1
(g2
g3
Ntp198
Rp199
(dp200
g7
I00
sg8
I0
sg9
I01
sg10
Nsg11
I01
sg12
I0
sg13
S'img/sand.png'
p201
sg15
g180
sg17
g18
(I550
I50
I50
I50
tp202
Rp203
sg21
I0
sg22
(I11
I1
tp204
sg24
Nsg25
I0
sg26
I1
sg27
I11
sbag1
(g2
g3
Ntp205
Rp206
(dp207
g7
I00
sg8
I0
sg9
I01
sg10
Nsg11
I01
sg12
I0
sg13
S'img/sand.png'
p208
sg15
g180
sg17
g18
(I600
I50
I50
I50
tp209
Rp210
sg21
I0
sg22
(I12
I1
tp211
sg24
Nsg25
I0
sg26
I1
sg27
I12
sbag1
(g2
g3
Ntp212
Rp213
(dp214
g7
I00
sg8
I0
sg9
I01
sg10
Nsg11
I01
sg12
I0
sg13
S'img/sand.png'
p215
sg15
g180
sg17
g18
(I650
I50
I50
I50
tp216
Rp217
sg21
I0
sg22
(I13
I1
tp218
sg24
Nsg25
I0
sg26
I1
sg27
I13
sbag1
(g2
g3
Ntp219
Rp220
(dp221
g7
I00
sg8
I0
sg9
I01
sg10
Nsg11
I01
sg12
I0
sg13
S'img/sand.png'
p222
sg15
g180
sg17
g18
(I700
I50
I50
I50
tp223
Rp224
sg21
I0
sg22
(I14
I1
tp225
sg24
Nsg25
I0
sg26
I1
sg27
I14
sbag1
(g2
g3
Ntp226
Rp227
(dp228
g7
I00
sg8
I0
sg9
I01
sg10
Nsg11
I01
sg12
I0
sg13
S'img/sand.png'
p229
sg15
g180
sg17
g18
(I750
I50
I50
I50
tp230
Rp231
sg21
I0
sg22
(I15
I1
tp232
sg24
Nsg25
I0
sg26
I1
sg27
I15
sbag1
(g2
g3
Ntp233
Rp234
(dp235
g7
I00
sg8
I0
sg9
I01
sg10
Nsg11
I01
sg12
I0
sg13
S'img/sand.png'
p236
sg15
g180
sg17
g18
(I800
I50
I50
I50
tp237
Rp238
sg21
I0
sg22
(I16
I1
tp239
sg24
Nsg25
I0
sg26
I1
sg27
I16
sbag1
(g2
g3
Ntp240
Rp241
(dp242
g7
I00
sg8
I0
sg9
I01
sg10
Nsg11
I01
sg12
I0
sg13
S'img/sand.png'
p243
sg15
g180
sg17
g18
(I850
I50
I50
I50
tp244
Rp245
sg21
I0
sg22
(I17
I1
tp246
sg24
Nsg25
I0
sg26
I1
sg27
I17
sbag1
(g2
g3
Ntp247
Rp248
(dp249
g7
I00
sg8
I0
sg9
I01
sg10
Nsg11
I00
sg12
I0
sg13
S'img/sand.png'
p250
sg15
g180
sg17
g18
(I900
I50
I50
I50
tp251
Rp252
sg21
I0
sg22
(I18
I1
tp253
sg24
Nsg25
I0
sg26
I1
sg27
I18
sbag1
(g2
g3
Ntp254
Rp255
(dp256
g7
I00
sg8
I0
sg9
I01
sg10
Nsg11
I00
sg12
I0
sg13
S'img/sand.png'
p257
sg15
g180
sg17
g18
(I950
I50
I50
I50
tp258
Rp259
sg21
I0
sg22
(I19
I1
tp260
sg24
Nsg25
I0
sg26
I1
sg27
I19
sbag1
(g2
g3
Ntp261
Rp262
(dp263
g7
I00
sg8
I0
sg9
I01
sg10
Nsg11
I00
sg12
I0
sg13
S'img/sand.png'
p264
sg15
g180
sg17
g18
(I1000
I50
I50
I50
tp265
Rp266
sg21
I0
sg22
(I20
I1
tp267
sg24
Nsg25
I0
sg26
I1
sg27
I20
sbag1
(g2
g3
Ntp268
Rp269
(dp270
g7
I00
sg8
I0
sg9
I01
sg10
Nsg11
I00
sg12
I0
sg13
S'img/sand.png'
p271
sg15
g180
sg17
g18
(I1050
I50
I50
I50
tp272
Rp273
sg21
I0
sg22
(I21
I1
tp274
sg24
Nsg25
I0
sg26
I1
sg27
I21
sbag1
(g2
g3
Ntp275
Rp276
(dp277
g7
I00
sg8
I0
sg9
I01
sg10
Nsg11
I00
sg12
I0
sg13
S'img/sand.png'
p278
sg15
g180
sg17
g18
(I1100
I50
I50
I50
tp279
Rp280
sg21
I0
sg22
(I22
I1
tp281
sg24
Nsg25
I0
sg26
I1
sg27
I22
sbag1
(g2
g3
Ntp282
Rp283
(dp284
g7
I00
sg8
I0
sg9
I01
sg10
Nsg11
I00
sg12
I0
sg13
S'img/sand.png'
p285
sg15
g180
sg17
g18
(I1150
I50
I50
I50
tp286
Rp287
sg21
I0
sg22
(I23
I1
tp288
sg24
Nsg25
I0
sg26
I1
sg27
I23
sbag1
(g2
g3
Ntp289
Rp290
(dp291
g7
I01
sg8
I0
sg9
I01
sg10
Nsg11
I00
sg12
I0
sg13
S'img/wall.png'
p292
sg15
g16
sg17
g18
(I1200
I50
I50
I50
tp293
Rp294
sg21
I0
sg22
(I24
I1
tp295
sg24
Nsg25
I1
sg26
I1
sg27
I24
sbag1
(g2
g3
Ntp296
Rp297
(dp298
g7
I01
sg8
I0
sg9
I01
sg10
Nsg11
I01
sg12
I0
sg13
S'img/wall.png'
p299
sg15
g16
sg17
g18
(I0
I100
I50
I50
tp300
Rp301
sg21
I0
sg22
(I0
I2
tp302
sg24
Nsg25
I1
sg26
I2
sg27
I0
sbag1
(g2
g3
Ntp303
Rp304
(dp305
g7
I00
sg8
I0
sg9
I01
sg10
Nsg11
I01
sg12
I0
sg13
S'img/sand.png'
p306
sg15
g180
sg17
g18
(I50
I100
I50
I50
tp307
Rp308
sg21
I0
sg22
(I1
I2
tp309
sg24
Nsg25
I0
sg26
I2
sg27
I1
sbag1
(g2
g3
Ntp310
Rp311
(dp312
g7
I00
sg8
I0
sg9
I01
sg10
Nsg11
I01
sg12
I0
sg13
S'img/sand.png'
p313
sg15
g180
sg17
g18
(I100
I100
I50
I50
tp314
Rp315
sg21
I0
sg22
(I2
I2
tp316
sg24
Nsg25
I0
sg26
I2
sg27
I2
sbag1
(g2
g3
Ntp317
Rp318
(dp319
g7
I00
sg8
I0
sg9
I01
sg10
Nsg11
I01
sg12
I0
sg13
S'img/sand.png'
p320
sg15
g180
sg17
g18
(I550
I100
I50
I50
tp321
Rp322
sg21
I0
sg22
(I11
I2
tp323
sg24
Nsg25
I0
sg26
I2
sg27
I11
sbag1
(g2
g3
Ntp324
Rp325
(dp326
g7
I00
sg8
I0
sg9
I01
sg10
Nsg11
I01
sg12
I0
sg13
S'img/sand.png'
p327
sg15
g180
sg17
g18
(I600
I100
I50
I50
tp328
Rp329
sg21
I0
sg22
(I12
I2
tp330
sg24
Nsg25
I0
sg26
I2
sg27
I12
sbag1
(g2
g3
Ntp331
Rp332
(dp333
g7
I00
sg8
I0
sg9
I01
sg10
Nsg11
I01
sg12
I0
sg13
S'img/sand.png'
p334
sg15
g180
sg17
g18
(I650
I100
I50
I50
tp335
Rp336
sg21
I0
sg22
(I13
I2
tp337
sg24
Nsg25
I0
sg26
I2
sg27
I13
sbag1
(g2
g3
Ntp338
Rp339
(dp340
g7
I00
sg8
I0
sg9
I01
sg10
Nsg11
I01
sg12
I0
sg13
S'img/sand.png'
p341
sg15
g180
sg17
g18
(I700
I100
I50
I50
tp342
Rp343
sg21
I0
sg22
(I14
I2
tp344
sg24
Nsg25
I0
sg26
I2
sg27
I14
sbag1
(g2
g3
Ntp345
Rp346
(dp347
g7
I00
sg8
I0
sg9
I01
sg10
Nsg11
I01
sg12
I0
sg13
S'img/sand.png'
p348
sg15
g180
sg17
g18
(I750
I100
I50
I50
tp349
Rp350
sg21
I0
sg22
(I15
I2
tp351
sg24
Nsg25
I0
sg26
I2
sg27
I15
sbag1
(g2
g3
Ntp352
Rp353
(dp354
g7
I00
sg8
I0
sg9
I01
sg10
Nsg11
I01
sg12
I0
sg13
S'img/sand.png'
p355
sg15
g180
sg17
g18
(I800
I100
I50
I50
tp356
Rp357
sg21
I0
sg22
(I16
I2
tp358
sg24
Nsg25
I0
sg26
I2
sg27
I16
sbag1
(g2
g3
Ntp359
Rp360
(dp361
g7
I00
sg8
I0
sg9
I01
sg10
Nsg11
I01
sg12
I0
sg13
S'img/sand.png'
p362
sg15
g180
sg17
g18
(I850
I100
I50
I50
tp363
Rp364
sg21
I0
sg22
(I17
I2
tp365
sg24
Nsg25
I0
sg26
I2
sg27
I17
sbag1
(g2
g3
Ntp366
Rp367
(dp368
g7
I00
sg8
I0
sg9
I01
sg10
Nsg11
I00
sg12
I0
sg13
S'img/sand.png'
p369
sg15
g180
sg17
g18
(I900
I100
I50
I50
tp370
Rp371
sg21
I0
sg22
(I18
I2
tp372
sg24
Nsg25
I0
sg26
I2
sg27
I18
sbag1
(g2
g3
Ntp373
Rp374
(dp375
g7
I01
sg8
I0
sg9
I01
sg10
Nsg11
I00
sg12
I0
sg13
S'img/wall.png'
p376
sg15
g16
sg17
g18
(I950
I100
I50
I50
tp377
Rp378
sg21
I0
sg22
(I19
I2
tp379
sg24
Nsg25
I1
sg26
I2
sg27
I19
sbag1
(g2
g3
Ntp380
Rp381
(dp382
g7
I01
sg8
I0
sg9
I01
sg10
Nsg11
I00
sg12
I0
sg13
S'img/wall.png'
p383
sg15
g16
sg17
g18
(I1000
I100
I50
I50
tp384
Rp385
sg21
I0
sg22
(I20
I2
tp386
sg24
Nsg25
I1
sg26
I2
sg27
I20
sbag1
(g2
g3
Ntp387
Rp388
(dp389
g7
I01
sg8
I0
sg9
I01
sg10
Nsg11
I00
sg12
I0
sg13
S'img/wall.png'
p390
sg15
g16
sg17
g18
(I1050
I100
I50
I50
tp391
Rp392
sg21
I0
sg22
(I21
I2
tp393
sg24
Nsg25
I1
sg26
I2
sg27
I21
sbag1
(g2
g3
Ntp394
Rp395
(dp396
g7
I00
sg8
I0
sg9
I01
sg10
Nsg11
I00
sg12
I0
sg13
S'img/sand.png'
p397
sg15
g180
sg17
g18
(I1100
I100
I50
I50
tp398
Rp399
sg21
I0
sg22
(I22
I2
tp400
sg24
Nsg25
I0
sg26
I2
sg27
I22
sbag1
(g2
g3
Ntp401
Rp402
(dp403
g7
I00
sg8
I0
sg9
I01
sg10
Nsg11
I00
sg12
I0
sg13
S'img/sand.png'
p404
sg15
g180
sg17
g18
(I1150
I100
I50
I50
tp405
Rp406
sg21
I0
sg22
(I23
I2
tp407
sg24
Nsg25
I0
sg26
I2
sg27
I23
sbag1
(g2
g3
Ntp408
Rp409
(dp410
g7
I01
sg8
I0
sg9
I01
sg10
Nsg11
I00
sg12
I0
sg13
S'img/wall.png'
p411
sg15
g16
sg17
g18
(I1200
I100
I50
I50
tp412
Rp413
sg21
I0
sg22
(I24
I2
tp414
sg24
Nsg25
I1
sg26
I2
sg27
I24
sbag1
(g2
g3
Ntp415
Rp416
(dp417
g7
I01
sg8
I0
sg9
I01
sg10
Nsg11
I01
sg12
I0
sg13
S'img/wall.png'
p418
sg15
g16
sg17
g18
(I0
I150
I50
I50
tp419
Rp420
sg21
I0
sg22
(I0
I3
tp421
sg24
Nsg25
I1
sg26
I3
sg27
I0
sbag1
(g2
g3
Ntp422
Rp423
(dp424
g7
I00
sg8
I0
sg9
I01
sg10
Nsg11
I01
sg12
I0
sg13
S'img/sand.png'
p425
sg15
g180
sg17
g18
(I50
I150
I50
I50
tp426
Rp427
sg21
I0
sg22
(I1
I3
tp428
sg24
Nsg25
I0
sg26
I3
sg27
I1
sbag1
(g2
g3
Ntp429
Rp430
(dp431
g7
I00
sg8
I0
sg9
I01
sg10
Nsg11
I01
sg12
I0
sg13
S'img/sand.png'
p432
sg15
g180
sg17
g18
(I100
I150
I50
I50
tp433
Rp434
sg21
I0
sg22
(I2
I3
tp435
sg24
Nsg25
I0
sg26
I3
sg27
I2
sbag1
(g2
g3
Ntp436
Rp437
(dp438
g7
I00
sg8
I0
sg9
I01
sg10
Nsg11
I01
sg12
I0
sg13
S'img/sand.png'
p439
sg15
g180
sg17
g18
(I550
I150
I50
I50
tp440
Rp441
sg21
I0
sg22
(I11
I3
tp442
sg24
Nsg25
I0
sg26
I3
sg27
I11
sbag1
(g2
g3
Ntp443
Rp444
(dp445
g7
I00
sg8
I0
sg9
I01
sg10
Nsg11
I01
sg12
I0
sg13
S'img/sand.png'
p446
sg15
g180
sg17
g18
(I600
I150
I50
I50
tp447
Rp448
sg21
I0
sg22
(I12
I3
tp449
sg24
Nsg25
I0
sg26
I3
sg27
I12
sbag1
(g2
g3
Ntp450
Rp451
(dp452
g7
I00
sg8
I0
sg9
I01
sg10
Nsg11
I01
sg12
I0
sg13
S'img/sand.png'
p453
sg15
g180
sg17
g18
(I650
I150
I50
I50
tp454
Rp455
sg21
I0
sg22
(I13
I3
tp456
sg24
Nsg25
I0
sg26
I3
sg27
I13
sbag1
(g2
g3
Ntp457
Rp458
(dp459
g7
I00
sg8
I0
sg9
I01
sg10
Nsg11
I01
sg12
I0
sg13
S'img/sand.png'
p460
sg15
g180
sg17
g18
(I700
I150
I50
I50
tp461
Rp462
sg21
I0
sg22
(I14
I3
tp463
sg24
Nsg25
I0
sg26
I3
sg27
I14
sbag1
(g2
g3
Ntp464
Rp465
(dp466
g7
I00
sg8
I0
sg9
I01
sg10
Nsg11
I01
sg12
I0
sg13
S'img/sand.png'
p467
sg15
g180
sg17
g18
(I750
I150
I50
I50
tp468
Rp469
sg21
I0
sg22
(I15
I3
tp470
sg24
Nsg25
I0
sg26
I3
sg27
I15
sbag1
(g2
g3
Ntp471
Rp472
(dp473
g7
I00
sg8
I0
sg9
I01
sg10
Nsg11
I01
sg12
I0
sg13
S'img/sand.png'
p474
sg15
g180
sg17
g18
(I800
I150
I50
I50
tp475
Rp476
sg21
I0
sg22
(I16
I3
tp477
sg24
Nsg25
I0
sg26
I3
sg27
I16
sbag1
(g2
g3
Ntp478
Rp479
(dp480
g7
I00
sg8
I0
sg9
I01
sg10
Nsg11
I01
sg12
I0
sg13
S'img/sand.png'
p481
sg15
g180
sg17
g18
(I850
I150
I50
I50
tp482
Rp483
sg21
I0
sg22
(I17
I3
tp484
sg24
Nsg25
I0
sg26
I3
sg27
I17
sbag1
(g2
g3
Ntp485
Rp486
(dp487
g7
I00
sg8
I0
sg9
I01
sg10
Nsg11
I00
sg12
I0
sg13
S'img/sand.png'
p488
sg15
g180
sg17
g18
(I900
I150
I50
I50
tp489
Rp490
sg21
I0
sg22
(I18
I3
tp491
sg24
Nsg25
I0
sg26
I3
sg27
I18
sbag1
(g2
g3
Ntp492
Rp493
(dp494
g7
I00
sg8
I0
sg9
I01
sg10
Nsg11
I00
sg12
I0
sg13
S'img/sand.png'
p495
sg15
g180
sg17
g18
(I950
I150
I50
I50
tp496
Rp497
sg21
I0
sg22
(I19
I3
tp498
sg24
Nsg25
I0
sg26
I3
sg27
I19
sbag1
(g2
g3
Ntp499
Rp500
(dp501
g7
I00
sg8
I0
sg9
I01
sg10
Nsg11
I00
sg12
I0
sg13
S'img/sand.png'
p502
sg15
g180
sg17
g18
(I1000
I150
I50
I50
tp503
Rp504
sg21
I0
sg22
(I20
I3
tp505
sg24
Nsg25
I0
sg26
I3
sg27
I20
sbag1
(g2
g3
Ntp506
Rp507
(dp508
g7
I00
sg8
I0
sg9
I01
sg10
Nsg11
I00
sg12
I0
sg13
S'img/sand.png'
p509
sg15
g180
sg17
g18
(I1050
I150
I50
I50
tp510
Rp511
sg21
I0
sg22
(I21
I3
tp512
sg24
Nsg25
I0
sg26
I3
sg27
I21
sbag1
(g2
g3
Ntp513
Rp514
(dp515
g7
I00
sg8
I0
sg9
I01
sg10
Nsg11
I00
sg12
I0
sg13
S'img/sand.png'
p516
sg15
g180
sg17
g18
(I1100
I150
I50
I50
tp517
Rp518
sg21
I0
sg22
(I22
I3
tp519
sg24
Nsg25
I0
sg26
I3
sg27
I22
sbag1
(g2
g3
Ntp520
Rp521
(dp522
g7
I00
sg8
I0
sg9
I01
sg10
Nsg11
I00
sg12
I0
sg13
S'img/sand.png'
p523
sg15
g180
sg17
g18
(I1150
I150
I50
I50
tp524
Rp525
sg21
I0
sg22
(I23
I3
tp526
sg24
Nsg25
I0
sg26
I3
sg27
I23
sbag1
(g2
g3
Ntp527
Rp528
(dp529
g7
I01
sg8
I0
sg9
I01
sg10
Nsg11
I00
sg12
I0
sg13
S'img/wall.png'
p530
sg15
g16
sg17
g18
(I1200
I150
I50
I50
tp531
Rp532
sg21
I0
sg22
(I24
I3
tp533
sg24
Nsg25
I1
sg26
I3
sg27
I24
sbag1
(g2
g3
Ntp534
Rp535
(dp536
g7
I01
sg8
I0
sg9
I01
sg10
Nsg11
I01
sg12
I0
sg13
S'img/wall.png'
p537
sg15
g16
sg17
g18
(I0
I200
I50
I50
tp538
Rp539
sg21
I0
sg22
(I0
I4
tp540
sg24
Nsg25
I1
sg26
I4
sg27
I0
sbag1
(g2
g3
Ntp541
Rp542
(dp543
g7
I00
sg8
I0
sg9
I01
sg10
Nsg11
I01
sg12
I0
sg13
S'img/sand.png'
p544
sg15
g180
sg17
g18
(I50
I200
I50
I50
tp545
Rp546
sg21
I0
sg22
(I1
I4
tp547
sg24
Nsg25
I0
sg26
I4
sg27
I1
sbag1
(g2
g3
Ntp548
Rp549
(dp550
g7
I00
sg8
I0
sg9
I01
sg10
Nsg11
I01
sg12
I0
sg13
S'img/sand.png'
p551
sg15
g180
sg17
g18
(I100
I200
I50
I50
tp552
Rp553
sg21
I0
sg22
(I2
I4
tp554
sg24
Nsg25
I0
sg26
I4
sg27
I2
sbag1
(g2
g3
Ntp555
Rp556
(dp557
g7
I01
sg8
I0
sg9
I01
sg10
Nsg11
I01
sg12
I0
sg13
S'img/wall.png'
p558
sg15
g16
sg17
g18
(I550
I200
I50
I50
tp559
Rp560
sg21
I0
sg22
(I11
I4
tp561
sg24
Nsg25
I1
sg26
I4
sg27
I11
sbag1
(g2
g3
Ntp562
Rp563
(dp564
g7
I01
sg8
I0
sg9
I01
sg10
Nsg11
I01
sg12
I0
sg13
S'img/wall.png'
p565
sg15
g16
sg17
g18
(I600
I200
I50
I50
tp566
Rp567
sg21
I0
sg22
(I12
I4
tp568
sg24
Nsg25
I1
sg26
I4
sg27
I12
sbag1
(g2
g3
Ntp569
Rp570
(dp571
g7
I01
sg8
I0
sg9
I01
sg10
Nsg11
I01
sg12
I0
sg13
S'img/wall.png'
p572
sg15
g16
sg17
g18
(I650
I200
I50
I50
tp573
Rp574
sg21
I0
sg22
(I13
I4
tp575
sg24
Nsg25
I1
sg26
I4
sg27
I13
sbag1
(g2
g3
Ntp576
Rp577
(dp578
g7
I01
sg8
I0
sg9
I01
sg10
Nsg11
I01
sg12
I0
sg13
S'img/wall.png'
p579
sg15
g16
sg17
g18
(I700
I200
I50
I50
tp580
Rp581
sg21
I0
sg22
(I14
I4
tp582
sg24
Nsg25
I1
sg26
I4
sg27
I14
sbag1
(g2
g3
Ntp583
Rp584
(dp585
g7
I00
sg8
I0
sg9
I01
sg10
Nsg11
I01
sg12
I0
sg13
S'img/sand.png'
p586
sg15
g180
sg17
g18
(I750
I200
I50
I50
tp587
Rp588
sg21
I0
sg22
(I15
I4
tp589
sg24
Nsg25
I0
sg26
I4
sg27
I15
sbag1
(g2
g3
Ntp590
Rp591
(dp592
g7
I00
sg8
I0
sg9
I01
sg10
Nsg11
I01
sg12
I0
sg13
S'img/sand.png'
p593
sg15
g180
sg17
g18
(I800
I200
I50
I50
tp594
Rp595
sg21
I0
sg22
(I16
I4
tp596
sg24
Nsg25
I0
sg26
I4
sg27
I16
sbag1
(g2
g3
Ntp597
Rp598
(dp599
g7
I00
sg8
I0
sg9
I01
sg10
Nsg11
I01
sg12
I0
sg13
S'img/sand.png'
p600
sg15
g180
sg17
g18
(I850
I200
I50
I50
tp601
Rp602
sg21
I0
sg22
(I17
I4
tp603
sg24
Nsg25
I0
sg26
I4
sg27
I17
sbag1
(g2
g3
Ntp604
Rp605
(dp606
g7
I00
sg8
I0
sg9
I01
sg10
Nsg11
I00
sg12
I0
sg13
S'img/sand.png'
p607
sg15
g180
sg17
g18
(I900
I200
I50
I50
tp608
Rp609
sg21
I0
sg22
(I18
I4
tp610
sg24
Nsg25
I0
sg26
I4
sg27
I18
sbag1
(g2
g3
Ntp611
Rp612
(dp613
g7
I00
sg8
I0
sg9
I01
sg10
Nsg11
I00
sg12
I0
sg13
S'img/sand.png'
p614
sg15
g180
sg17
g18
(I950
I200
I50
I50
tp615
Rp616
sg21
I0
sg22
(I19
I4
tp617
sg24
Nsg25
I0
sg26
I4
sg27
I19
sbag1
(g2
g3
Ntp618
Rp619
(dp620
g7
I00
sg8
I0
sg9
I01
sg10
Nsg11
I00
sg12
I0
sg13
S'img/sand.png'
p621
sg15
g180
sg17
g18
(I1000
I200
I50
I50
tp622
Rp623
sg21
I0
sg22
(I20
I4
tp624
sg24
Nsg25
I0
sg26
I4
sg27
I20
sbag1
(g2
g3
Ntp625
Rp626
(dp627
g7
I00
sg8
I0
sg9
I01
sg10
Nsg11
I00
sg12
I0
sg13
S'img/sand.png'
p628
sg15
g180
sg17
g18
(I1050
I200
I50
I50
tp629
Rp630
sg21
I0
sg22
(I21
I4
tp631
sg24
Nsg25
I0
sg26
I4
sg27
I21
sbag1
(g2
g3
Ntp632
Rp633
(dp634
g7
I00
sg8
I0
sg9
I01
sg10
Nsg11
I00
sg12
I0
sg13
S'img/sand.png'
p635
sg15
g180
sg17
g18
(I1100
I200
I50
I50
tp636
Rp637
sg21
I0
sg22
(I22
I4
tp638
sg24
Nsg25
I0
sg26
I4
sg27
I22
sbag1
(g2
g3
Ntp639
Rp640
(dp641
g7
I00
sg8
I0
sg9
I01
sg10
Nsg11
I00
sg12
I0
sg13
S'img/sand.png'
p642
sg15
g180
sg17
g18
(I1150
I200
I50
I50
tp643
Rp644
sg21
I0
sg22
(I23
I4
tp645
sg24
Nsg25
I0
sg26
I4
sg27
I23
sbag1
(g2
g3
Ntp646
Rp647
(dp648
g7
I01
sg8
I0
sg9
I01
sg10
Nsg11
I00
sg12
I0
sg13
S'img/wall.png'
p649
sg15
g16
sg17
g18
(I1200
I200
I50
I50
tp650
Rp651
sg21
I0
sg22
(I24
I4
tp652
sg24
Nsg25
I1
sg26
I4
sg27
I24
sbag1
(g2
g3
Ntp653
Rp654
(dp655
g7
I01
sg8
I0
sg9
I01
sg10
Nsg11
I01
sg12
I0
sg13
S'img/wall.png'
p656
sg15
g16
sg17
g18
(I0
I250
I50
I50
tp657
Rp658
sg21
I0
sg22
(I0
I5
tp659
sg24
Nsg25
I1
sg26
I5
sg27
I0
sbag1
(g2
g3
Ntp660
Rp661
(dp662
g7
I00
sg8
I0
sg9
I01
sg10
Nsg11
I01
sg12
I0
sg13
S'img/sand.png'
p663
sg15
g180
sg17
g18
(I50
I250
I50
I50
tp664
Rp665
sg21
I0
sg22
(I1
I5
tp666
sg24
Nsg25
I0
sg26
I5
sg27
I1
sbag1
(g2
g3
Ntp667
Rp668
(dp669
g7
I00
sg8
I0
sg9
I01
sg10
Nsg11
I01
sg12
I0
sg13
S'img/sand.png'
p670
sg15
g180
sg17
g18
(I100
I250
I50
I50
tp671
Rp672
sg21
I0
sg22
(I2
I5
tp673
sg24
Nsg25
I0
sg26
I5
sg27
I2
sbag1
(g2
g3
Ntp674
Rp675
(dp676
g7
I00
sg8
I0
sg9
I01
sg10
Nsg11
I01
sg12
I0
sg13
S'img/sand.png'
p677
sg15
g180
sg17
g18
(I550
I250
I50
I50
tp678
Rp679
sg21
I0
sg22
(I11
I5
tp680
sg24
Nsg25
I0
sg26
I5
sg27
I11
sbag1
(g2
g3
Ntp681
Rp682
(dp683
g7
I00
sg8
I0
sg9
I01
sg10
Nsg11
I01
sg12
I0
sg13
S'img/sand.png'
p684
sg15
g180
sg17
g18
(I600
I250
I50
I50
tp685
Rp686
sg21
I0
sg22
(I12
I5
tp687
sg24
Nsg25
I0
sg26
I5
sg27
I12
sbag1
(g2
g3
Ntp688
Rp689
(dp690
g7
I00
sg8
I0
sg9
I01
sg10
Nsg11
I01
sg12
I0
sg13
S'img/sand.png'
p691
sg15
g180
sg17
g18
(I650
I250
I50
I50
tp692
Rp693
sg21
I0
sg22
(I13
I5
tp694
sg24
Nsg25
I0
sg26
I5
sg27
I13
sbag1
(g2
g3
Ntp695
Rp696
(dp697
g7
I01
sg8
I0
sg9
I01
sg10
Nsg11
I01
sg12
I0
sg13
S'img/wall.png'
p698
sg15
g16
sg17
g18
(I700
I250
I50
I50
tp699
Rp700
sg21
I0
sg22
(I14
I5
tp701
sg24
Nsg25
I1
sg26
I5
sg27
I14
sbag1
(g2
g3
Ntp702
Rp703
(dp704
g7
I01
sg8
I0
sg9
I01
sg10
Nsg11
I01
sg12
I0
sg13
S'img/wall.png'
p705
sg15
g16
sg17
g18
(I750
I250
I50
I50
tp706
Rp707
sg21
I0
sg22
(I15
I5
tp708
sg24
Nsg25
I1
sg26
I5
sg27
I15
sbag1
(g2
g3
Ntp709
Rp710
(dp711
g7
I00
sg8
I0
sg9
I01
sg10
Nsg11
I01
sg12
I0
sg13
S'img/sand.png'
p712
sg15
g180
sg17
g18
(I800
I250
I50
I50
tp713
Rp714
sg21
I0
sg22
(I16
I5
tp715
sg24
Nsg25
I0
sg26
I5
sg27
I16
sbag1
(g2
g3
Ntp716
Rp717
(dp718
g7
I00
sg8
I0
sg9
I01
sg10
Nsg11
I01
sg12
I0
sg13
S'img/sand.png'
p719
sg15
g180
sg17
g18
(I850
I250
I50
I50
tp720
Rp721
sg21
I0
sg22
(I17
I5
tp722
sg24
Nsg25
I0
sg26
I5
sg27
I17
sbag1
(g2
g3
Ntp723
Rp724
(dp725
g7
I00
sg8
I0
sg9
I01
sg10
Nsg11
I00
sg12
I0
sg13
S'img/sand.png'
p726
sg15
g180
sg17
g18
(I900
I250
I50
I50
tp727
Rp728
sg21
I0
sg22
(I18
I5
tp729
sg24
Nsg25
I0
sg26
I5
sg27
I18
sbag1
(g2
g3
Ntp730
Rp731
(dp732
g7
I00
sg8
I0
sg9
I01
sg10
Nsg11
I00
sg12
I0
sg13
S'img/sand.png'
p733
sg15
g180
sg17
g18
(I950
I250
I50
I50
tp734
Rp735
sg21
I0
sg22
(I19
I5
tp736
sg24
Nsg25
I0
sg26
I5
sg27
I19
sbag1
(g2
g3
Ntp737
Rp738
(dp739
g7
I00
sg8
I0
sg9
I01
sg10
Nsg11
I00
sg12
I0
sg13
S'img/sand.png'
p740
sg15
g180
sg17
g18
(I1000
I250
I50
I50
tp741
Rp742
sg21
I0
sg22
(I20
I5
tp743
sg24
Nsg25
I0
sg26
I5
sg27
I20
sbag1
(g2
g3
Ntp744
Rp745
(dp746
g7
I00
sg8
I0
sg9
I01
sg10
Nsg11
I00
sg12
I0
sg13
S'img/sand.png'
p747
sg15
g180
sg17
g18
(I1050
I250
I50
I50
tp748
Rp749
sg21
I0
sg22
(I21
I5
tp750
sg24
Nsg25
I0
sg26
I5
sg27
I21
sbag1
(g2
g3
Ntp751
Rp752
(dp753
g7
I00
sg8
I0
sg9
I01
sg10
Nsg11
I00
sg12
I0
sg13
S'img/sand.png'
p754
sg15
g180
sg17
g18
(I1100
I250
I50
I50
tp755
Rp756
sg21
I0
sg22
(I22
I5
tp757
sg24
Nsg25
I0
sg26
I5
sg27
I22
sbag1
(g2
g3
Ntp758
Rp759
(dp760
g7
I00
sg8
I0
sg9
I01
sg10
Nsg11
I00
sg12
I0
sg13
S'img/sand.png'
p761
sg15
g180
sg17
g18
(I1150
I250
I50
I50
tp762
Rp763
sg21
I0
sg22
(I23
I5
tp764
sg24
Nsg25
I0
sg26
I5
sg27
I23
sbag1
(g2
g3
Ntp765
Rp766
(dp767
g7
I01
sg8
I0
sg9
I01
sg10
Nsg11
I00
sg12
I0
sg13
S'img/wall.png'
p768
sg15
g16
sg17
g18
(I1200
I250
I50
I50
tp769
Rp770
sg21
I0
sg22
(I24
I5
tp771
sg24
Nsg25
I1
sg26
I5
sg27
I24
sbag1
(g2
g3
Ntp772
Rp773
(dp774
g7
I01
sg8
I0
sg9
I01
sg10
Nsg11
I01
sg12
I0
sg13
S'img/wall.png'
p775
sg15
g16
sg17
g18
(I0
I300
I50
I50
tp776
Rp777
sg21
I0
sg22
(I0
I6
tp778
sg24
Nsg25
I1
sg26
I6
sg27
I0
sbag1
(g2
g3
Ntp779
Rp780
(dp781
g7
I00
sg8
I0
sg9
I01
sg10
Nsg11
I01
sg12
I0
sg13
S'img/sand.png'
p782
sg15
g180
sg17
g18
(I50
I300
I50
I50
tp783
Rp784
sg21
I0
sg22
(I1
I6
tp785
sg24
Nsg25
I0
sg26
I6
sg27
I1
sbag1
(g2
g3
Ntp786
Rp787
(dp788
g7
I00
sg8
I0
sg9
I01
sg10
Nsg11
I01
sg12
I0
sg13
S'img/sand.png'
p789
sg15
g180
sg17
g18
(I100
I300
I50
I50
tp790
Rp791
sg21
I0
sg22
(I2
I6
tp792
sg24
Nsg25
I0
sg26
I6
sg27
I2
sbag1
(g2
g3
Ntp793
Rp794
(dp795
g7
I00
sg8
I0
sg9
I01
sg10
Nsg11
I01
sg12
I0
sg13
S'img/sand.png'
p796
sg15
g180
sg17
g18
(I550
I300
I50
I50
tp797
Rp798
sg21
I0
sg22
(I11
I6
tp799
sg24
Nsg25
I0
sg26
I6
sg27
I11
sbag1
(g2
g3
Ntp800
Rp801
(dp802
g7
I00
sg8
I0
sg9
I01
sg10
Nsg11
I01
sg12
I0
sg13
S'img/sand.png'
p803
sg15
g180
sg17
g18
(I600
I300
I50
I50
tp804
Rp805
sg21
I0
sg22
(I12
I6
tp806
sg24
Nsg25
I0
sg26
I6
sg27
I12
sbag1
(g2
g3
Ntp807
Rp808
(dp809
g7
I00
sg8
I0
sg9
I01
sg10
Nsg11
I01
sg12
I0
sg13
S'img/sand.png'
p810
sg15
g180
sg17
g18
(I650
I300
I50
I50
tp811
Rp812
sg21
I0
sg22
(I13
I6
tp813
sg24
Nsg25
I0
sg26
I6
sg27
I13
sbag1
(g2
g3
Ntp814
Rp815
(dp816
g7
I01
sg8
I0
sg9
I01
sg10
Nsg11
I01
sg12
I0
sg13
S'img/wall.png'
p817
sg15
g16
sg17
g18
(I700
I300
I50
I50
tp818
Rp819
sg21
I0
sg22
(I14
I6
tp820
sg24
Nsg25
I1
sg26
I6
sg27
I14
sbag1
(g2
g3
Ntp821
Rp822
(dp823
g7
I00
sg8
I0
sg9
I01
sg10
Nsg11
I01
sg12
I0
sg13
S'img/sand.png'
p824
sg15
g180
sg17
g18
(I750
I300
I50
I50
tp825
Rp826
sg21
I0
sg22
(I15
I6
tp827
sg24
Nsg25
I0
sg26
I6
sg27
I15
sbag1
(g2
g3
Ntp828
Rp829
(dp830
g7
I00
sg8
I0
sg9
I01
sg10
Nsg11
I01
sg12
I0
sg13
S'img/sand.png'
p831
sg15
g180
sg17
g18
(I800
I300
I50
I50
tp832
Rp833
sg21
I0
sg22
(I16
I6
tp834
sg24
Nsg25
I0
sg26
I6
sg27
I16
sbag1
(g2
g3
Ntp835
Rp836
(dp837
g7
I00
sg8
I0
sg9
I01
sg10
Nsg11
I01
sg12
I0
sg13
S'img/sand.png'
p838
sg15
g180
sg17
g18
(I850
I300
I50
I50
tp839
Rp840
sg21
I0
sg22
(I17
I6
tp841
sg24
Nsg25
I0
sg26
I6
sg27
I17
sbag1
(g2
g3
Ntp842
Rp843
(dp844
g7
I00
sg8
I0
sg9
I01
sg10
Nsg11
I00
sg12
I0
sg13
S'img/sand.png'
p845
sg15
g180
sg17
g18
(I900
I300
I50
I50
tp846
Rp847
sg21
I0
sg22
(I18
I6
tp848
sg24
Nsg25
I0
sg26
I6
sg27
I18
sbag1
(g2
g3
Ntp849
Rp850
(dp851
g7
I00
sg8
I0
sg9
I01
sg10
Nsg11
I00
sg12
I0
sg13
S'img/sand.png'
p852
sg15
g180
sg17
g18
(I950
I300
I50
I50
tp853
Rp854
sg21
I0
sg22
(I19
I6
tp855
sg24
Nsg25
I0
sg26
I6
sg27
I19
sbag1
(g2
g3
Ntp856
Rp857
(dp858
g7
I00
sg8
I0
sg9
I01
sg10
Nsg11
I00
sg12
I0
sg13
S'img/sand.png'
p859
sg15
g180
sg17
g18
(I1000
I300
I50
I50
tp860
Rp861
sg21
I0
sg22
(I20
I6
tp862
sg24
Nsg25
I0
sg26
I6
sg27
I20
sbag1
(g2
g3
Ntp863
Rp864
(dp865
g7
I00
sg8
I0
sg9
I01
sg10
Nsg11
I00
sg12
I0
sg13
S'img/sand.png'
p866
sg15
g180
sg17
g18
(I1050
I300
I50
I50
tp867
Rp868
sg21
I0
sg22
(I21
I6
tp869
sg24
Nsg25
I0
sg26
I6
sg27
I21
sbag1
(g2
g3
Ntp870
Rp871
(dp872
g7
I00
sg8
I0
sg9
I01
sg10
Nsg11
I00
sg12
I0
sg13
S'img/sand.png'
p873
sg15
g180
sg17
g18
(I1100
I300
I50
I50
tp874
Rp875
sg21
I0
sg22
(I22
I6
tp876
sg24
Nsg25
I0
sg26
I6
sg27
I22
sbag1
(g2
g3
Ntp877
Rp878
(dp879
g7
I00
sg8
I0
sg9
I01
sg10
Nsg11
I00
sg12
I0
sg13
S'img/sand.png'
p880
sg15
g180
sg17
g18
(I1150
I300
I50
I50
tp881
Rp882
sg21
I0
sg22
(I23
I6
tp883
sg24
Nsg25
I0
sg26
I6
sg27
I23
sbag1
(g2
g3
Ntp884
Rp885
(dp886
g7
I01
sg8
I0
sg9
I01
sg10
Nsg11
I00
sg12
I0
sg13
S'img/wall.png'
p887
sg15
g16
sg17
g18
(I1200
I300
I50
I50
tp888
Rp889
sg21
I0
sg22
(I24
I6
tp890
sg24
Nsg25
I1
sg26
I6
sg27
I24
sbag1
(g2
g3
Ntp891
Rp892
(dp893
g7
I01
sg8
I0
sg9
I01
sg10
Nsg11
I01
sg12
I0
sg13
S'img/wall.png'
p894
sg15
g16
sg17
g18
(I0
I350
I50
I50
tp895
Rp896
sg21
I0
sg22
(I0
I7
tp897
sg24
Nsg25
I1
sg26
I7
sg27
I0
sbag1
(g2
g3
Ntp898
Rp899
(dp900
g7
I00
sg8
I0
sg9
I01
sg10
Nsg11
I01
sg12
I0
sg13
S'img/sand.png'
p901
sg15
g180
sg17
g18
(I50
I350
I50
I50
tp902
Rp903
sg21
I0
sg22
(I1
I7
tp904
sg24
Nsg25
I0
sg26
I7
sg27
I1
sbag1
(g2
g3
Ntp905
Rp906
(dp907
g7
I00
sg8
I0
sg9
I01
sg10
Nsg11
I01
sg12
I0
sg13
S'img/sand.png'
p908
sg15
g180
sg17
g18
(I100
I350
I50
I50
tp909
Rp910
sg21
I0
sg22
(I2
I7
tp911
sg24
Nsg25
I0
sg26
I7
sg27
I2
sbag1
(g2
g3
Ntp912
Rp913
(dp914
g7
I00
sg8
I0
sg9
I01
sg10
Nsg11
I01
sg12
I0
sg13
S'img/sand.png'
p915
sg15
g180
sg17
g18
(I150
I350
I50
I50
tp916
Rp917
sg21
I0
sg22
(I3
I7
tp918
sg24
Nsg25
I0
sg26
I7
sg27
I3
sbag1
(g2
g3
Ntp919
Rp920
(dp921
g7
I00
sg8
I0
sg9
I01
sg10
Nsg11
I01
sg12
I0
sg13
S'img/sand.png'
p922
sg15
g180
sg17
g18
(I200
I350
I50
I50
tp923
Rp924
sg21
I0
sg22
(I4
I7
tp925
sg24
Nsg25
I0
sg26
I7
sg27
I4
sbag1
(g2
g3
Ntp926
Rp927
(dp928
g7
I00
sg8
I0
sg9
I01
sg10
Nsg11
I01
sg12
I0
sg13
S'img/sand.png'
p929
sg15
g180
sg17
g18
(I250
I350
I50
I50
tp930
Rp931
sg21
I0
sg22
(I5
I7
tp932
sg24
Nsg25
I0
sg26
I7
sg27
I5
sbag1
(g2
g3
Ntp933
Rp934
(dp935
g7
I00
sg8
I0
sg9
I01
sg10
Nsg11
I01
sg12
I0
sg13
S'img/sand.png'
p936
sg15
g180
sg17
g18
(I300
I350
I50
I50
tp937
Rp938
sg21
I0
sg22
(I6
I7
tp939
sg24
Nsg25
I0
sg26
I7
sg27
I6
sbag1
(g2
g3
Ntp940
Rp941
(dp942
g7
I00
sg8
I0
sg9
I01
sg10
Nsg11
I01
sg12
I0
sg13
S'img/sand.png'
p943
sg15
g180
sg17
g18
(I600
I350
I50
I50
tp944
Rp945
sg21
I0
sg22
(I12
I7
tp946
sg24
Nsg25
I0
sg26
I7
sg27
I12
sbag1
(g2
g3
Ntp947
Rp948
(dp949
g7
I00
sg8
I0
sg9
I01
sg10
Nsg11
I01
sg12
I0
sg13
S'img/sand.png'
p950
sg15
g180
sg17
g18
(I650
I350
I50
I50
tp951
Rp952
sg21
I0
sg22
(I13
I7
tp953
sg24
Nsg25
I0
sg26
I7
sg27
I13
sbag1
(g2
g3
Ntp954
Rp955
(dp956
g7
I01
sg8
I0
sg9
I01
sg10
Nsg11
I01
sg12
I0
sg13
S'img/wall.png'
p957
sg15
g16
sg17
g18
(I700
I350
I50
I50
tp958
Rp959
sg21
I0
sg22
(I14
I7
tp960
sg24
Nsg25
I1
sg26
I7
sg27
I14
sbag1
(g2
g3
Ntp961
Rp962
(dp963
g7
I00
sg8
I0
sg9
I01
sg10
Nsg11
I01
sg12
I0
sg13
S'img/sand.png'
p964
sg15
g180
sg17
g18
(I750
I350
I50
I50
tp965
Rp966
sg21
I0
sg22
(I15
I7
tp967
sg24
Nsg25
I0
sg26
I7
sg27
I15
sbag1
(g2
g3
Ntp968
Rp969
(dp970
g7
I00
sg8
I0
sg9
I01
sg10
Nsg11
I01
sg12
I0
sg13
S'img/sand.png'
p971
sg15
g180
sg17
g18
(I800
I350
I50
I50
tp972
Rp973
sg21
I0
sg22
(I16
I7
tp974
sg24
Nsg25
I0
sg26
I7
sg27
I16
sbag1
(g2
g3
Ntp975
Rp976
(dp977
g7
I01
sg8
I0
sg9
I01
sg10
Nsg11
I01
sg12
I0
sg13
S'img/wall.png'
p978
sg15
g16
sg17
g18
(I850
I350
I50
I50
tp979
Rp980
sg21
I0
sg22
(I17
I7
tp981
sg24
Nsg25
I1
sg26
I7
sg27
I17
sbag1
(g2
g3
Ntp982
Rp983
(dp984
g7
I01
sg8
I0
sg9
I01
sg10
Nsg11
I00
sg12
I0
sg13
S'img/wall.png'
p985
sg15
g16
sg17
g18
(I900
I350
I50
I50
tp986
Rp987
sg21
I0
sg22
(I18
I7
tp988
sg24
Nsg25
I1
sg26
I7
sg27
I18
sbag1
(g2
g3
Ntp989
Rp990
(dp991
g7
I01
sg8
I0
sg9
I01
sg10
Nsg11
I00
sg12
I0
sg13
S'img/wall.png'
p992
sg15
g16
sg17
g18
(I950
I350
I50
I50
tp993
Rp994
sg21
I0
sg22
(I19
I7
tp995
sg24
Nsg25
I1
sg26
I7
sg27
I19
sbag1
(g2
g3
Ntp996
Rp997
(dp998
g7
I01
sg8
I0
sg9
I01
sg10
Nsg11
I00
sg12
I0
sg13
S'img/wall.png'
p999
sg15
g16
sg17
g18
(I1000
I350
I50
I50
tp1000
Rp1001
sg21
I0
sg22
(I20
I7
tp1002
sg24
Nsg25
I1
sg26
I7
sg27
I20
sbag1
(g2
g3
Ntp1003
Rp1004
(dp1005
g7
I01
sg8
I0
sg9
I01
sg10
Nsg11
I00
sg12
I0
sg13
S'img/wall.png'
p1006
sg15
g16
sg17
g18
(I1050
I350
I50
I50
tp1007
Rp1008
sg21
I0
sg22
(I21
I7
tp1009
sg24
Nsg25
I1
sg26
I7
sg27
I21
sbag1
(g2
g3
Ntp1010
Rp1011
(dp1012
g7
I01
sg8
I0
sg9
I01
sg10
Nsg11
I00
sg12
I0
sg13
S'img/wall.png'
p1013
sg15
g16
sg17
g18
(I1100
I350
I50
I50
tp1014
Rp1015
sg21
I0
sg22
(I22
I7
tp1016
sg24
Nsg25
I1
sg26
I7
sg27
I22
sbag1
(g2
g3
Ntp1017
Rp1018
(dp1019
g7
I01
sg8
I0
sg9
I01
sg10
Nsg11
I00
sg12
I0
sg13
S'img/wall.png'
p1020
sg15
g16
sg17
g18
(I1150
I350
I50
I50
tp1021
Rp1022
sg21
I0
sg22
(I23
I7
tp1023
sg24
Nsg25
I1
sg26
I7
sg27
I23
sbag1
(g2
g3
Ntp1024
Rp1025
(dp1026
g7
I01
sg8
I0
sg9
I01
sg10
Nsg11
I00
sg12
I0
sg13
S'img/wall.png'
p1027
sg15
g16
sg17
g18
(I1200
I350
I50
I50
tp1028
Rp1029
sg21
I0
sg22
(I24
I7
tp1030
sg24
Nsg25
I1
sg26
I7
sg27
I24
sbag1
(g2
g3
Ntp1031
Rp1032
(dp1033
g7
I01
sg8
I0
sg9
I01
sg10
Nsg11
I01
sg12
I0
sg13
S'img/wall.png'
p1034
sg15
g16
sg17
g18
(I0
I400
I50
I50
tp1035
Rp1036
sg21
I0
sg22
(I0
I8
tp1037
sg24
Nsg25
I1
sg26
I8
sg27
I0
sbag1
(g2
g3
Ntp1038
Rp1039
(dp1040
g7
I00
sg8
I0
sg9
I01
sg10
Nsg11
I01
sg12
I0
sg13
S'img/sand.png'
p1041
sg15
g180
sg17
g18
(I50
I400
I50
I50
tp1042
Rp1043
sg21
I0
sg22
(I1
I8
tp1044
sg24
Nsg25
I0
sg26
I8
sg27
I1
sbag1
(g2
g3
Ntp1045
Rp1046
(dp1047
g7
I00
sg8
I0
sg9
I01
sg10
Nsg11
I01
sg12
I0
sg13
S'img/sand.png'
p1048
sg15
g180
sg17
g18
(I100
I400
I50
I50
tp1049
Rp1050
sg21
I0
sg22
(I2
I8
tp1051
sg24
Nsg25
I0
sg26
I8
sg27
I2
sbag1
(g2
g3
Ntp1052
Rp1053
(dp1054
g7
I00
sg8
I0
sg9
I01
sg10
Nsg11
I01
sg12
I0
sg13
S'img/sand.png'
p1055
sg15
g180
sg17
g18
(I150
I400
I50
I50
tp1056
Rp1057
sg21
I0
sg22
(I3
I8
tp1058
sg24
Nsg25
I0
sg26
I8
sg27
I3
sbag1
(g2
g3
Ntp1059
Rp1060
(dp1061
g7
I00
sg8
I0
sg9
I01
sg10
Nsg11
I01
sg12
I0
sg13
S'img/sand.png'
p1062
sg15
g180
sg17
g18
(I200
I400
I50
I50
tp1063
Rp1064
sg21
I0
sg22
(I4
I8
tp1065
sg24
Nsg25
I0
sg26
I8
sg27
I4
sbag1
(g2
g3
Ntp1066
Rp1067
(dp1068
g7
I00
sg8
I0
sg9
I01
sg10
Nsg11
I01
sg12
I0
sg13
S'img/sand.png'
p1069
sg15
g180
sg17
g18
(I250
I400
I50
I50
tp1070
Rp1071
sg21
I0
sg22
(I5
I8
tp1072
sg24
Nsg25
I0
sg26
I8
sg27
I5
sbag1
(g2
g3
Ntp1073
Rp1074
(dp1075
g7
I00
sg8
I0
sg9
I01
sg10
Nsg11
I01
sg12
I0
sg13
S'img/sand.png'
p1076
sg15
g180
sg17
g18
(I300
I400
I50
I50
tp1077
Rp1078
sg21
I0
sg22
(I6
I8
tp1079
sg24
Nsg25
I0
sg26
I8
sg27
I6
sbag1
(g2
g3
Ntp1080
Rp1081
(dp1082
g7
I00
sg8
I0
sg9
I01
sg10
Nsg11
I01
sg12
I0
sg13
S'img/sand.png'
p1083
sg15
g180
sg17
g18
(I350
I400
I50
I50
tp1084
Rp1085
sg21
I0
sg22
(I7
I8
tp1086
sg24
Nsg25
I0
sg26
I8
sg27
I7
sbag1
(g2
g3
Ntp1087
Rp1088
(dp1089
g7
I00
sg8
I0
sg9
I01
sg10
Nsg11
I01
sg12
I0
sg13
S'img/sand.png'
p1090
sg15
g180
sg17
g18
(I400
I400
I50
I50
tp1091
Rp1092
sg21
I0
sg22
(I8
I8
tp1093
sg24
Nsg25
I0
sg26
I8
sg27
I8
sbag1
(g2
g3
Ntp1094
Rp1095
(dp1096
g7
I00
sg8
I0
sg9
I01
sg10
Nsg11
I01
sg12
I0
sg13
S'img/sand.png'
p1097
sg15
g180
sg17
g18
(I450
I400
I50
I50
tp1098
Rp1099
sg21
I0
sg22
(I9
I8
tp1100
sg24
Nsg25
I0
sg26
I8
sg27
I9
sbag1
(g2
g3
Ntp1101
Rp1102
(dp1103
g7
I00
sg8
I0
sg9
I01
sg10
Nsg11
I01
sg12
I0
sg13
S'img/sand.png'
p1104
sg15
g180
sg17
g18
(I500
I400
I50
I50
tp1105
Rp1106
sg21
I0
sg22
(I10
I8
tp1107
sg24
Nsg25
I0
sg26
I8
sg27
I10
sbag1
(g2
g3
Ntp1108
Rp1109
(dp1110
g7
I00
sg8
I0
sg9
I01
sg10
Nsg11
I01
sg12
I0
sg13
S'img/sand.png'
p1111
sg15
g180
sg17
g18
(I550
I400
I50
I50
tp1112
Rp1113
sg21
I0
sg22
(I11
I8
tp1114
sg24
Nsg25
I0
sg26
I8
sg27
I11
sbag1
(g2
g3
Ntp1115
Rp1116
(dp1117
g7
I00
sg8
I0
sg9
I01
sg10
Nsg11
I01
sg12
I0
sg13
S'img/sand.png'
p1118
sg15
g180
sg17
g18
(I600
I400
I50
I50
tp1119
Rp1120
sg21
I0
sg22
(I12
I8
tp1121
sg24
Nsg25
I0
sg26
I8
sg27
I12
sbag1
(g2
g3
Ntp1122
Rp1123
(dp1124
g7
I00
sg8
I0
sg9
I01
sg10
Nsg11
I01
sg12
I0
sg13
S'img/sand.png'
p1125
sg15
g180
sg17
g18
(I650
I400
I50
I50
tp1126
Rp1127
sg21
I0
sg22
(I13
I8
tp1128
sg24
Nsg25
I0
sg26
I8
sg27
I13
sbag1
(g2
g3
Ntp1129
Rp1130
(dp1131
g7
I01
sg8
I0
sg9
I01
sg10
Nsg11
I01
sg12
I0
sg13
S'img/wall.png'
p1132
sg15
g16
sg17
g18
(I700
I400
I50
I50
tp1133
Rp1134
sg21
I0
sg22
(I14
I8
tp1135
sg24
Nsg25
I1
sg26
I8
sg27
I14
sbag1
(g2
g3
Ntp1136
Rp1137
(dp1138
g7
I00
sg8
I0
sg9
I01
sg10
Nsg11
I01
sg12
I0
sg13
S'img/sand.png'
p1139
sg15
g180
sg17
g18
(I750
I400
I50
I50
tp1140
Rp1141
sg21
I0
sg22
(I15
I8
tp1142
sg24
Nsg25
I0
sg26
I8
sg27
I15
sbag1
(g2
g3
Ntp1143
Rp1144
(dp1145
g7
I00
sg8
I0
sg9
I01
sg10
Nsg11
I01
sg12
I0
sg13
S'img/sand.png'
p1146
sg15
g180
sg17
g18
(I800
I400
I50
I50
tp1147
Rp1148
sg21
I0
sg22
(I16
I8
tp1149
sg24
Nsg25
I0
sg26
I8
sg27
I16
sbag1
(g2
g3
Ntp1150
Rp1151
(dp1152
g7
I00
sg8
I0
sg9
I01
sg10
Nsg11
I01
sg12
I0
sg13
S'img/sand.png'
p1153
sg15
g180
sg17
g18
(I850
I400
I50
I50
tp1154
Rp1155
sg21
I0
sg22
(I17
I8
tp1156
sg24
Nsg25
I0
sg26
I8
sg27
I17
sbag1
(g2
g3
Ntp1157
Rp1158
(dp1159
g7
I00
sg8
I0
sg9
I01
sg10
Nsg11
I00
sg12
I0
sg13
S'img/sand.png'
p1160
sg15
g180
sg17
g18
(I900
I400
I50
I50
tp1161
Rp1162
sg21
I0
sg22
(I18
I8
tp1163
sg24
Nsg25
I0
sg26
I8
sg27
I18
sbag1
(g2
g3
Ntp1164
Rp1165
(dp1166
g7
I00
sg8
I0
sg9
I01
sg10
Nsg11
I00
sg12
I0
sg13
S'img/sand.png'
p1167
sg15
g180
sg17
g18
(I950
I400
I50
I50
tp1168
Rp1169
sg21
I0
sg22
(I19
I8
tp1170
sg24
Nsg25
I0
sg26
I8
sg27
I19
sbag1
(g2
g3
Ntp1171
Rp1172
(dp1173
g7
I00
sg8
I0
sg9
I01
sg10
Nsg11
I00
sg12
I0
sg13
S'img/sand.png'
p1174
sg15
g180
sg17
g18
(I1000
I400
I50
I50
tp1175
Rp1176
sg21
I0
sg22
(I20
I8
tp1177
sg24
Nsg25
I0
sg26
I8
sg27
I20
sbag1
(g2
g3
Ntp1178
Rp1179
(dp1180
g7
I00
sg8
I0
sg9
I01
sg10
Nsg11
I00
sg12
I0
sg13
S'img/sand.png'
p1181
sg15
g180
sg17
g18
(I1050
I400
I50
I50
tp1182
Rp1183
sg21
I0
sg22
(I21
I8
tp1184
sg24
Nsg25
I0
sg26
I8
sg27
I21
sbag1
(g2
g3
Ntp1185
Rp1186
(dp1187
g7
I00
sg8
I0
sg9
I01
sg10
Nsg11
I00
sg12
I0
sg13
S'img/sand.png'
p1188
sg15
g180
sg17
g18
(I1100
I400
I50
I50
tp1189
Rp1190
sg21
I0
sg22
(I22
I8
tp1191
sg24
Nsg25
I0
sg26
I8
sg27
I22
sbag1
(g2
g3
Ntp1192
Rp1193
(dp1194
g7
I00
sg8
I0
sg9
I01
sg10
Nsg11
I00
sg12
I0
sg13
S'img/sand.png'
p1195
sg15
g180
sg17
g18
(I1150
I400
I50
I50
tp1196
Rp1197
sg21
I0
sg22
(I23
I8
tp1198
sg24
Nsg25
I0
sg26
I8
sg27
I23
sbag1
(g2
g3
Ntp1199
Rp1200
(dp1201
g7
I01
sg8
I0
sg9
I01
sg10
Nsg11
I00
sg12
I0
sg13
S'img/wall.png'
p1202
sg15
g16
sg17
g18
(I1200
I400
I50
I50
tp1203
Rp1204
sg21
I0
sg22
(I24
I8
tp1205
sg24
Nsg25
I1
sg26
I8
sg27
I24
sbag1
(g2
g3
Ntp1206
Rp1207
(dp1208
g7
I01
sg8
I0
sg9
I01
sg10
Nsg11
I01
sg12
I0
sg13
S'img/wall.png'
p1209
sg15
g16
sg17
g18
(I0
I450
I50
I50
tp1210
Rp1211
sg21
I0
sg22
(I0
I9
tp1212
sg24
Nsg25
I1
sg26
I9
sg27
I0
sbag1
(g2
g3
Ntp1213
Rp1214
(dp1215
g7
I01
sg8
I0
sg9
I01
sg10
Nsg11
I01
sg12
I0
sg13
S'img/wall.png'
p1216
sg15
g16
sg17
g18
(I50
I450
I50
I50
tp1217
Rp1218
sg21
I0
sg22
(I1
I9
tp1219
sg24
Nsg25
I1
sg26
I9
sg27
I1
sbag1
(g2
g3
Ntp1220
Rp1221
(dp1222
g7
I01
sg8
I0
sg9
I01
sg10
Nsg11
I01
sg12
I0
sg13
S'img/wall.png'
p1223
sg15
g16
sg17
g18
(I100
I450
I50
I50
tp1224
Rp1225
sg21
I0
sg22
(I2
I9
tp1226
sg24
Nsg25
I1
sg26
I9
sg27
I2
sbag1
(g2
g3
Ntp1227
Rp1228
(dp1229
g7
I01
sg8
I0
sg9
I01
sg10
Nsg11
I01
sg12
I0
sg13
S'img/wall.png'
p1230
sg15
g16
sg17
g18
(I150
I450
I50
I50
tp1231
Rp1232
sg21
I0
sg22
(I3
I9
tp1233
sg24
Nsg25
I1
sg26
I9
sg27
I3
sbag1
(g2
g3
Ntp1234
Rp1235
(dp1236
g7
I01
sg8
I0
sg9
I01
sg10
Nsg11
I01
sg12
I0
sg13
S'img/wall.png'
p1237
sg15
g16
sg17
g18
(I200
I450
I50
I50
tp1238
Rp1239
sg21
I0
sg22
(I4
I9
tp1240
sg24
Nsg25
I1
sg26
I9
sg27
I4
sbag1
(g2
g3
Ntp1241
Rp1242
(dp1243
g7
I01
sg8
I0
sg9
I01
sg10
Nsg11
I01
sg12
I0
sg13
S'img/wall.png'
p1244
sg15
g16
sg17
g18
(I250
I450
I50
I50
tp1245
Rp1246
sg21
I0
sg22
(I5
I9
tp1247
sg24
Nsg25
I1
sg26
I9
sg27
I5
sbag1
(g2
g3
Ntp1248
Rp1249
(dp1250
g7
I01
sg8
I0
sg9
I01
sg10
Nsg11
I01
sg12
I0
sg13
S'img/wall.png'
p1251
sg15
g16
sg17
g18
(I300
I450
I50
I50
tp1252
Rp1253
sg21
I0
sg22
(I6
I9
tp1254
sg24
Nsg25
I1
sg26
I9
sg27
I6
sbag1
(g2
g3
Ntp1255
Rp1256
(dp1257
g7
I01
sg8
I0
sg9
I01
sg10
Nsg11
I01
sg12
I0
sg13
S'img/wall.png'
p1258
sg15
g16
sg17
g18
(I350
I450
I50
I50
tp1259
Rp1260
sg21
I0
sg22
(I7
I9
tp1261
sg24
Nsg25
I1
sg26
I9
sg27
I7
sbag1
(g2
g3
Ntp1262
Rp1263
(dp1264
g7
I01
sg8
I0
sg9
I01
sg10
Nsg11
I01
sg12
I0
sg13
S'img/wall.png'
p1265
sg15
g16
sg17
g18
(I400
I450
I50
I50
tp1266
Rp1267
sg21
I0
sg22
(I8
I9
tp1268
sg24
Nsg25
I1
sg26
I9
sg27
I8
sbag1
(g2
g3
Ntp1269
Rp1270
(dp1271
g7
I01
sg8
I0
sg9
I01
sg10
Nsg11
I01
sg12
I0
sg13
S'img/wall.png'
p1272
sg15
g16
sg17
g18
(I450
I450
I50
I50
tp1273
Rp1274
sg21
I0
sg22
(I9
I9
tp1275
sg24
Nsg25
I1
sg26
I9
sg27
I9
sbag1
(g2
g3
Ntp1276
Rp1277
(dp1278
g7
I01
sg8
I0
sg9
I01
sg10
Nsg11
I01
sg12
I0
sg13
S'img/wall.png'
p1279
sg15
g16
sg17
g18
(I500
I450
I50
I50
tp1280
Rp1281
sg21
I0
sg22
(I10
I9
tp1282
sg24
Nsg25
I1
sg26
I9
sg27
I10
sbag1
(g2
g3
Ntp1283
Rp1284
(dp1285
g7
I01
sg8
I0
sg9
I01
sg10
Nsg11
I01
sg12
I0
sg13
S'img/wall.png'
p1286
sg15
g16
sg17
g18
(I550
I450
I50
I50
tp1287
Rp1288
sg21
I0
sg22
(I11
I9
tp1289
sg24
Nsg25
I1
sg26
I9
sg27
I11
sbag1
(g2
g3
Ntp1290
Rp1291
(dp1292
g7
I01
sg8
I0
sg9
I01
sg10
Nsg11
I01
sg12
I0
sg13
S'img/wall.png'
p1293
sg15
g16
sg17
g18
(I600
I450
I50
I50
tp1294
Rp1295
sg21
I0
sg22
(I12
I9
tp1296
sg24
Nsg25
I1
sg26
I9
sg27
I12
sbag1
(g2
g3
Ntp1297
Rp1298
(dp1299
g7
I01
sg8
I0
sg9
I01
sg10
Nsg11
I01
sg12
I0
sg13
S'img/wall.png'
p1300
sg15
g16
sg17
g18
(I650
I450
I50
I50
tp1301
Rp1302
sg21
I0
sg22
(I13
I9
tp1303
sg24
Nsg25
I1
sg26
I9
sg27
I13
sbag1
(g2
g3
Ntp1304
Rp1305
(dp1306
g7
I01
sg8
I0
sg9
I01
sg10
Nsg11
I01
sg12
I0
sg13
S'img/wall.png'
p1307
sg15
g16
sg17
g18
(I700
I450
I50
I50
tp1308
Rp1309
sg21
I0
sg22
(I14
I9
tp1310
sg24
Nsg25
I1
sg26
I9
sg27
I14
sbag1
(g2
g3
Ntp1311
Rp1312
(dp1313
g7
I00
sg8
I0
sg9
I01
sg10
Nsg11
I01
sg12
I0
sg13
S'img/sand.png'
p1314
sg15
g180
sg17
g18
(I750
I450
I50
I50
tp1315
Rp1316
sg21
I0
sg22
(I15
I9
tp1317
sg24
Nsg25
I0
sg26
I9
sg27
I15
sbag1
(g2
g3
Ntp1318
Rp1319
(dp1320
g7
I00
sg8
I0
sg9
I01
sg10
Nsg11
I01
sg12
I0
sg13
S'img/sand.png'
p1321
sg15
g180
sg17
g18
(I800
I450
I50
I50
tp1322
Rp1323
sg21
I0
sg22
(I16
I9
tp1324
sg24
Nsg25
I0
sg26
I9
sg27
I16
sbag1
(g2
g3
Ntp1325
Rp1326
(dp1327
g7
I00
sg8
I0
sg9
I01
sg10
Nsg11
I01
sg12
I0
sg13
S'img/sand.png'
p1328
sg15
g180
sg17
g18
(I850
I450
I50
I50
tp1329
Rp1330
sg21
I0
sg22
(I17
I9
tp1331
sg24
Nsg25
I0
sg26
I9
sg27
I17
sbag1
(g2
g3
Ntp1332
Rp1333
(dp1334
g7
I00
sg8
I0
sg9
I01
sg10
Nsg11
I00
sg12
I0
sg13
S'img/sand.png'
p1335
sg15
g180
sg17
g18
(I900
I450
I50
I50
tp1336
Rp1337
sg21
I0
sg22
(I18
I9
tp1338
sg24
Nsg25
I0
sg26
I9
sg27
I18
sbag1
(g2
g3
Ntp1339
Rp1340
(dp1341
g7
I00
sg8
I0
sg9
I01
sg10
Nsg11
I00
sg12
I0
sg13
S'img/sand.png'
p1342
sg15
g180
sg17
g18
(I950
I450
I50
I50
tp1343
Rp1344
sg21
I0
sg22
(I19
I9
tp1345
sg24
Nsg25
I0
sg26
I9
sg27
I19
sbag1
(g2
g3
Ntp1346
Rp1347
(dp1348
g7
I00
sg8
I0
sg9
I01
sg10
Nsg11
I00
sg12
I0
sg13
S'img/sand.png'
p1349
sg15
g180
sg17
g18
(I1000
I450
I50
I50
tp1350
Rp1351
sg21
I0
sg22
(I20
I9
tp1352
sg24
Nsg25
I0
sg26
I9
sg27
I20
sbag1
(g2
g3
Ntp1353
Rp1354
(dp1355
g7
I00
sg8
I0
sg9
I01
sg10
Nsg11
I00
sg12
I0
sg13
S'img/sand.png'
p1356
sg15
g180
sg17
g18
(I1050
I450
I50
I50
tp1357
Rp1358
sg21
I0
sg22
(I21
I9
tp1359
sg24
Nsg25
I0
sg26
I9
sg27
I21
sbag1
(g2
g3
Ntp1360
Rp1361
(dp1362
g7
I00
sg8
I0
sg9
I01
sg10
Nsg11
I00
sg12
I0
sg13
S'img/sand.png'
p1363
sg15
g180
sg17
g18
(I1100
I450
I50
I50
tp1364
Rp1365
sg21
I0
sg22
(I22
I9
tp1366
sg24
Nsg25
I0
sg26
I9
sg27
I22
sbag1
(g2
g3
Ntp1367
Rp1368
(dp1369
g7
I00
sg8
I0
sg9
I01
sg10
Nsg11
I00
sg12
I0
sg13
S'img/sand.png'
p1370
sg15
g180
sg17
g18
(I1150
I450
I50
I50
tp1371
Rp1372
sg21
I0
sg22
(I23
I9
tp1373
sg24
Nsg25
I0
sg26
I9
sg27
I23
sbag1
(g2
g3
Ntp1374
Rp1375
(dp1376
g7
I01
sg8
I0
sg9
I01
sg10
Nsg11
I00
sg12
I0
sg13
S'img/wall.png'
p1377
sg15
g16
sg17
g18
(I1200
I450
I50
I50
tp1378
Rp1379
sg21
I0
sg22
(I24
I9
tp1380
sg24
Nsg25
I1
sg26
I9
sg27
I24
sbag1
(g2
g3
Ntp1381
Rp1382
(dp1383
g7
I01
sg8
I0
sg9
I01
sg10
Nsg11
I01
sg12
I0
sg13
S'img/wall.png'
p1384
sg15
g16
sg17
g18
(I0
I500
I50
I50
tp1385
Rp1386
sg21
I0
sg22
(I0
I10
tp1387
sg24
Nsg25
I1
sg26
I10
sg27
I0
sbag1
(g2
g3
Ntp1388
Rp1389
(dp1390
g7
I00
sg8
I0
sg9
I01
sg10
Nsg11
I01
sg12
I0
sg13
S'img/sand.png'
p1391
sg15
g180
sg17
g18
(I50
I500
I50
I50
tp1392
Rp1393
sg21
I0
sg22
(I1
I10
tp1394
sg24
Nsg25
I0
sg26
I10
sg27
I1
sbag1
(g2
g3
Ntp1395
Rp1396
(dp1397
g7
I00
sg8
I0
sg9
I01
sg10
Nsg11
I01
sg12
I0
sg13
S'img/sand.png'
p1398
sg15
g180
sg17
g18
(I100
I500
I50
I50
tp1399
Rp1400
sg21
I0
sg22
(I2
I10
tp1401
sg24
Nsg25
I0
sg26
I10
sg27
I2
sbag1
(g2
g3
Ntp1402
Rp1403
(dp1404
g7
I00
sg8
I0
sg9
I01
sg10
Nsg11
I01
sg12
I0
sg13
S'img/sand.png'
p1405
sg15
g180
sg17
g18
(I150
I500
I50
I50
tp1406
Rp1407
sg21
I0
sg22
(I3
I10
tp1408
sg24
Nsg25
I0
sg26
I10
sg27
I3
sbag1
(g2
g3
Ntp1409
Rp1410
(dp1411
g7
I00
sg8
I0
sg9
I01
sg10
Nsg11
I01
sg12
I0
sg13
S'img/sand.png'
p1412
sg15
g180
sg17
g18
(I200
I500
I50
I50
tp1413
Rp1414
sg21
I0
sg22
(I4
I10
tp1415
sg24
Nsg25
I0
sg26
I10
sg27
I4
sbag1
(g2
g3
Ntp1416
Rp1417
(dp1418
g7
I00
sg8
I0
sg9
I01
sg10
Nsg11
I01
sg12
I0
sg13
S'img/sand.png'
p1419
sg15
g180
sg17
g18
(I250
I500
I50
I50
tp1420
Rp1421
sg21
I0
sg22
(I5
I10
tp1422
sg24
Nsg25
I0
sg26
I10
sg27
I5
sbag1
(g2
g3
Ntp1423
Rp1424
(dp1425
g7
I00
sg8
I0
sg9
I01
sg10
Nsg11
I01
sg12
I0
sg13
S'img/sand.png'
p1426
sg15
g180
sg17
g18
(I300
I500
I50
I50
tp1427
Rp1428
sg21
I0
sg22
(I6
I10
tp1429
sg24
Nsg25
I0
sg26
I10
sg27
I6
sbag1
(g2
g3
Ntp1430
Rp1431
(dp1432
g7
I00
sg8
I0
sg9
I01
sg10
Nsg11
I01
sg12
I0
sg13
S'img/sand.png'
p1433
sg15
g180
sg17
g18
(I350
I500
I50
I50
tp1434
Rp1435
sg21
I0
sg22
(I7
I10
tp1436
sg24
Nsg25
I0
sg26
I10
sg27
I7
sbag1
(g2
g3
Ntp1437
Rp1438
(dp1439
g7
I00
sg8
I0
sg9
I01
sg10
Nsg11
I01
sg12
I0
sg13
S'img/sand.png'
p1440
sg15
g180
sg17
g18
(I400
I500
I50
I50
tp1441
Rp1442
sg21
I0
sg22
(I8
I10
tp1443
sg24
Nsg25
I0
sg26
I10
sg27
I8
sbag1
(g2
g3
Ntp1444
Rp1445
(dp1446
g7
I01
sg8
I0
sg9
I01
sg10
Nsg11
I01
sg12
I0
sg13
S'img/wall.png'
p1447
sg15
g16
sg17
g18
(I450
I500
I50
I50
tp1448
Rp1449
sg21
I0
sg22
(I9
I10
tp1450
sg24
Nsg25
I1
sg26
I10
sg27
I9
sbag1
(g2
g3
Ntp1451
Rp1452
(dp1453
g7
I00
sg8
I0
sg9
I01
sg10
Nsg11
I01
sg12
I0
sg13
S'img/sand.png'
p1454
sg15
g180
sg17
g18
(I500
I500
I50
I50
tp1455
Rp1456
sg21
I0
sg22
(I10
I10
tp1457
sg24
Nsg25
I0
sg26
I10
sg27
I10
sbag1
(g2
g3
Ntp1458
Rp1459
(dp1460
g7
I00
sg8
I0
sg9
I01
sg10
Nsg11
I01
sg12
I0
sg13
S'img/sand.png'
p1461
sg15
g180
sg17
g18
(I550
I500
I50
I50
tp1462
Rp1463
sg21
I0
sg22
(I11
I10
tp1464
sg24
Nsg25
I0
sg26
I10
sg27
I11
sbag1
(g2
g3
Ntp1465
Rp1466
(dp1467
g7
I00
sg8
I0
sg9
I01
sg10
Nsg11
I01
sg12
I0
sg13
S'img/sand.png'
p1468
sg15
g180
sg17
g18
(I600
I500
I50
I50
tp1469
Rp1470
sg21
I0
sg22
(I12
I10
tp1471
sg24
Nsg25
I0
sg26
I10
sg27
I12
sbag1
(g2
g3
Ntp1472
Rp1473
(dp1474
g7
I00
sg8
I0
sg9
I01
sg10
Nsg11
I01
sg12
I0
sg13
S'img/sand.png'
p1475
sg15
g180
sg17
g18
(I650
I500
I50
I50
tp1476
Rp1477
sg21
I0
sg22
(I13
I10
tp1478
sg24
Nsg25
I0
sg26
I10
sg27
I13
sbag1
(g2
g3
Ntp1479
Rp1480
(dp1481
g7
I01
sg8
I0
sg9
I01
sg10
Nsg11
I01
sg12
I0
sg13
S'img/wall.png'
p1482
sg15
g16
sg17
g18
(I700
I500
I50
I50
tp1483
Rp1484
sg21
I0
sg22
(I14
I10
tp1485
sg24
Nsg25
I1
sg26
I10
sg27
I14
sbag1
(g2
g3
Ntp1486
Rp1487
(dp1488
g7
I00
sg8
I0
sg9
I01
sg10
Nsg11
I01
sg12
I0
sg13
S'img/sand.png'
p1489
sg15
g180
sg17
g18
(I750
I500
I50
I50
tp1490
Rp1491
sg21
I0
sg22
(I15
I10
tp1492
sg24
Nsg25
I0
sg26
I10
sg27
I15
sbag1
(g2
g3
Ntp1493
Rp1494
(dp1495
g7
I00
sg8
I0
sg9
I01
sg10
Nsg11
I01
sg12
I0
sg13
S'img/sand.png'
p1496
sg15
g180
sg17
g18
(I800
I500
I50
I50
tp1497
Rp1498
sg21
I0
sg22
(I16
I10
tp1499
sg24
Nsg25
I0
sg26
I10
sg27
I16
sbag1
(g2
g3
Ntp1500
Rp1501
(dp1502
g7
I00
sg8
I0
sg9
I01
sg10
Nsg11
I01
sg12
I0
sg13
S'img/sand.png'
p1503
sg15
g180
sg17
g18
(I850
I500
I50
I50
tp1504
Rp1505
sg21
I0
sg22
(I17
I10
tp1506
sg24
Nsg25
I0
sg26
I10
sg27
I17
sbag1
(g2
g3
Ntp1507
Rp1508
(dp1509
g7
I00
sg8
I0
sg9
I01
sg10
Nsg11
I00
sg12
I0
sg13
S'img/sand.png'
p1510
sg15
g180
sg17
g18
(I900
I500
I50
I50
tp1511
Rp1512
sg21
I0
sg22
(I18
I10
tp1513
sg24
Nsg25
I0
sg26
I10
sg27
I18
sbag1
(g2
g3
Ntp1514
Rp1515
(dp1516
g7
I00
sg8
I0
sg9
I01
sg10
Nsg11
I00
sg12
I0
sg13
S'img/sand.png'
p1517
sg15
g180
sg17
g18
(I950
I500
I50
I50
tp1518
Rp1519
sg21
I0
sg22
(I19
I10
tp1520
sg24
Nsg25
I0
sg26
I10
sg27
I19
sbag1
(g2
g3
Ntp1521
Rp1522
(dp1523
g7
I00
sg8
I0
sg9
I01
sg10
Nsg11
I00
sg12
I0
sg13
S'img/sand.png'
p1524
sg15
g180
sg17
g18
(I1000
I500
I50
I50
tp1525
Rp1526
sg21
I0
sg22
(I20
I10
tp1527
sg24
Nsg25
I0
sg26
I10
sg27
I20
sbag1
(g2
g3
Ntp1528
Rp1529
(dp1530
g7
I00
sg8
I0
sg9
I01
sg10
Nsg11
I00
sg12
I0
sg13
S'img/sand.png'
p1531
sg15
g180
sg17
g18
(I1050
I500
I50
I50
tp1532
Rp1533
sg21
I0
sg22
(I21
I10
tp1534
sg24
Nsg25
I0
sg26
I10
sg27
I21
sbag1
(g2
g3
Ntp1535
Rp1536
(dp1537
g7
I00
sg8
I0
sg9
I01
sg10
Nsg11
I00
sg12
I0
sg13
S'img/sand.png'
p1538
sg15
g180
sg17
g18
(I1100
I500
I50
I50
tp1539
Rp1540
sg21
I0
sg22
(I22
I10
tp1541
sg24
Nsg25
I0
sg26
I10
sg27
I22
sbag1
(g2
g3
Ntp1542
Rp1543
(dp1544
g7
I00
sg8
I0
sg9
I01
sg10
Nsg11
I00
sg12
I0
sg13
S'img/sand.png'
p1545
sg15
g180
sg17
g18
(I1150
I500
I50
I50
tp1546
Rp1547
sg21
I0
sg22
(I23
I10
tp1548
sg24
Nsg25
I0
sg26
I10
sg27
I23
sbag1
(g2
g3
Ntp1549
Rp1550
(dp1551
g7
I01
sg8
I0
sg9
I01
sg10
Nsg11
I00
sg12
I0
sg13
S'img/wall.png'
p1552
sg15
g16
sg17
g18
(I1200
I500
I50
I50
tp1553
Rp1554
sg21
I0
sg22
(I24
I10
tp1555
sg24
Nsg25
I1
sg26
I10
sg27
I24
sbag1
(g2
g3
Ntp1556
Rp1557
(dp1558
g7
I01
sg8
I0
sg9
I01
sg10
Nsg11
I01
sg12
I0
sg13
S'img/wall.png'
p1559
sg15
g16
sg17
g18
(I0
I550
I50
I50
tp1560
Rp1561
sg21
I0
sg22
(I0
I11
tp1562
sg24
Nsg25
I1
sg26
I11
sg27
I0
sbag1
(g2
g3
Ntp1563
Rp1564
(dp1565
g7
I00
sg8
I0
sg9
I01
sg10
Nsg11
I01
sg12
I0
sg13
S'img/sand.png'
p1566
sg15
g180
sg17
g18
(I50
I550
I50
I50
tp1567
Rp1568
sg21
I0
sg22
(I1
I11
tp1569
sg24
Nsg25
I0
sg26
I11
sg27
I1
sbag1
(g2
g3
Ntp1570
Rp1571
(dp1572
g7
I00
sg8
I0
sg9
I01
sg10
Nsg11
I01
sg12
I0
sg13
S'img/sand.png'
p1573
sg15
g180
sg17
g18
(I100
I550
I50
I50
tp1574
Rp1575
sg21
I0
sg22
(I2
I11
tp1576
sg24
Nsg25
I0
sg26
I11
sg27
I2
sbag1
(g2
g3
Ntp1577
Rp1578
(dp1579
g7
I00
sg8
I0
sg9
I01
sg10
Nsg11
I01
sg12
I0
sg13
S'img/sand.png'
p1580
sg15
g180
sg17
g18
(I150
I550
I50
I50
tp1581
Rp1582
sg21
I0
sg22
(I3
I11
tp1583
sg24
Nsg25
I0
sg26
I11
sg27
I3
sbag1
(g2
g3
Ntp1584
Rp1585
(dp1586
g7
I00
sg8
I0
sg9
I01
sg10
Nsg11
I01
sg12
I0
sg13
S'img/sand.png'
p1587
sg15
g180
sg17
g18
(I200
I550
I50
I50
tp1588
Rp1589
sg21
I0
sg22
(I4
I11
tp1590
sg24
Nsg25
I0
sg26
I11
sg27
I4
sbag1
(g2
g3
Ntp1591
Rp1592
(dp1593
g7
I00
sg8
I0
sg9
I01
sg10
Nsg11
I01
sg12
I0
sg13
S'img/sand.png'
p1594
sg15
g180
sg17
g18
(I250
I550
I50
I50
tp1595
Rp1596
sg21
I0
sg22
(I5
I11
tp1597
sg24
Nsg25
I0
sg26
I11
sg27
I5
sbag1
(g2
g3
Ntp1598
Rp1599
(dp1600
g7
I00
sg8
I0
sg9
I01
sg10
Nsg11
I01
sg12
I0
sg13
S'img/sand.png'
p1601
sg15
g180
sg17
g18
(I300
I550
I50
I50
tp1602
Rp1603
sg21
I0
sg22
(I6
I11
tp1604
sg24
Nsg25
I0
sg26
I11
sg27
I6
sbag1
(g2
g3
Ntp1605
Rp1606
(dp1607
g7
I00
sg8
I0
sg9
I01
sg10
Nsg11
I01
sg12
I0
sg13
S'img/sand.png'
p1608
sg15
g180
sg17
g18
(I350
I550
I50
I50
tp1609
Rp1610
sg21
I0
sg22
(I7
I11
tp1611
sg24
Nsg25
I0
sg26
I11
sg27
I7
sbag1
(g2
g3
Ntp1612
Rp1613
(dp1614
g7
I00
sg8
I0
sg9
I01
sg10
Nsg11
I01
sg12
I0
sg13
S'img/sand.png'
p1615
sg15
g180
sg17
g18
(I400
I550
I50
I50
tp1616
Rp1617
sg21
I0
sg22
(I8
I11
tp1618
sg24
Nsg25
I0
sg26
I11
sg27
I8
sbag1
(g2
g3
Ntp1619
Rp1620
(dp1621
g7
I01
sg8
I0
sg9
I01
sg10
Nsg11
I01
sg12
I0
sg13
S'img/wall.png'
p1622
sg15
g16
sg17
g18
(I450
I550
I50
I50
tp1623
Rp1624
sg21
I0
sg22
(I9
I11
tp1625
sg24
Nsg25
I1
sg26
I11
sg27
I9
sbag1
(g2
g3
Ntp1626
Rp1627
(dp1628
g7
I00
sg8
I0
sg9
I01
sg10
Nsg11
I01
sg12
I0
sg13
S'img/sand.png'
p1629
sg15
g180
sg17
g18
(I500
I550
I50
I50
tp1630
Rp1631
sg21
I0
sg22
(I10
I11
tp1632
sg24
Nsg25
I0
sg26
I11
sg27
I10
sbag1
(g2
g3
Ntp1633
Rp1634
(dp1635
g7
I00
sg8
I0
sg9
I01
sg10
Nsg11
I01
sg12
I0
sg13
S'img/sand.png'
p1636
sg15
g180
sg17
g18
(I550
I550
I50
I50
tp1637
Rp1638
sg21
I0
sg22
(I11
I11
tp1639
sg24
Nsg25
I0
sg26
I11
sg27
I11
sbag1
(g2
g3
Ntp1640
Rp1641
(dp1642
g7
I01
sg8
I0
sg9
I01
sg10
Nsg11
I01
sg12
I0
sg13
S'img/wall.png'
p1643
sg15
g16
sg17
g18
(I600
I550
I50
I50
tp1644
Rp1645
sg21
I0
sg22
(I12
I11
tp1646
sg24
Nsg25
I1
sg26
I11
sg27
I12
sbag1
(g2
g3
Ntp1647
Rp1648
(dp1649
g7
I00
sg8
I0
sg9
I01
sg10
Nsg11
I01
sg12
I0
sg13
S'img/sand.png'
p1650
sg15
g180
sg17
g18
(I650
I550
I50
I50
tp1651
Rp1652
sg21
I0
sg22
(I13
I11
tp1653
sg24
Nsg25
I0
sg26
I11
sg27
I13
sbag1
(g2
g3
Ntp1654
Rp1655
(dp1656
g7
I01
sg8
I0
sg9
I01
sg10
Nsg11
I01
sg12
I0
sg13
S'img/wall.png'
p1657
sg15
g16
sg17
g18
(I700
I550
I50
I50
tp1658
Rp1659
sg21
I0
sg22
(I14
I11
tp1660
sg24
Nsg25
I1
sg26
I11
sg27
I14
sbag1
(g2
g3
Ntp1661
Rp1662
(dp1663
g7
I00
sg8
I0
sg9
I01
sg10
Nsg11
I01
sg12
I0
sg13
S'img/sand.png'
p1664
sg15
g180
sg17
g18
(I750
I550
I50
I50
tp1665
Rp1666
sg21
I0
sg22
(I15
I11
tp1667
sg24
Nsg25
I0
sg26
I11
sg27
I15
sbag1
(g2
g3
Ntp1668
Rp1669
(dp1670
g7
I00
sg8
I0
sg9
I01
sg10
Nsg11
I01
sg12
I0
sg13
S'img/sand.png'
p1671
sg15
g180
sg17
g18
(I800
I550
I50
I50
tp1672
Rp1673
sg21
I0
sg22
(I16
I11
tp1674
sg24
Nsg25
I0
sg26
I11
sg27
I16
sbag1
(g2
g3
Ntp1675
Rp1676
(dp1677
g7
I00
sg8
I0
sg9
I01
sg10
Nsg11
I01
sg12
I0
sg13
S'img/sand.png'
p1678
sg15
g180
sg17
g18
(I850
I550
I50
I50
tp1679
Rp1680
sg21
I0
sg22
(I17
I11
tp1681
sg24
Nsg25
I0
sg26
I11
sg27
I17
sbag1
(g2
g3
Ntp1682
Rp1683
(dp1684
g7
I00
sg8
I0
sg9
I01
sg10
Nsg11
I00
sg12
I0
sg13
S'img/sand.png'
p1685
sg15
g180
sg17
g18
(I900
I550
I50
I50
tp1686
Rp1687
sg21
I0
sg22
(I18
I11
tp1688
sg24
Nsg25
I0
sg26
I11
sg27
I18
sbag1
(g2
g3
Ntp1689
Rp1690
(dp1691
g7
I00
sg8
I0
sg9
I01
sg10
Nsg11
I00
sg12
I0
sg13
S'img/sand.png'
p1692
sg15
g180
sg17
g18
(I950
I550
I50
I50
tp1693
Rp1694
sg21
I0
sg22
(I19
I11
tp1695
sg24
Nsg25
I0
sg26
I11
sg27
I19
sbag1
(g2
g3
Ntp1696
Rp1697
(dp1698
g7
I00
sg8
I0
sg9
I01
sg10
Nsg11
I00
sg12
I0
sg13
S'img/sand.png'
p1699
sg15
g180
sg17
g18
(I1000
I550
I50
I50
tp1700
Rp1701
sg21
I0
sg22
(I20
I11
tp1702
sg24
Nsg25
I0
sg26
I11
sg27
I20
sbag1
(g2
g3
Ntp1703
Rp1704
(dp1705
g7
I00
sg8
I0
sg9
I01
sg10
Nsg11
I00
sg12
I0
sg13
S'img/sand.png'
p1706
sg15
g180
sg17
g18
(I1050
I550
I50
I50
tp1707
Rp1708
sg21
I0
sg22
(I21
I11
tp1709
sg24
Nsg25
I0
sg26
I11
sg27
I21
sbag1
(g2
g3
Ntp1710
Rp1711
(dp1712
g7
I00
sg8
I0
sg9
I01
sg10
Nsg11
I00
sg12
I0
sg13
S'img/sand.png'
p1713
sg15
g180
sg17
g18
(I1100
I550
I50
I50
tp1714
Rp1715
sg21
I0
sg22
(I22
I11
tp1716
sg24
Nsg25
I0
sg26
I11
sg27
I22
sbag1
(g2
g3
Ntp1717
Rp1718
(dp1719
g7
I00
sg8
I0
sg9
I01
sg10
Nsg11
I00
sg12
I0
sg13
S'img/sand.png'
p1720
sg15
g180
sg17
g18
(I1150
I550
I50
I50
tp1721
Rp1722
sg21
I0
sg22
(I23
I11
tp1723
sg24
Nsg25
I0
sg26
I11
sg27
I23
sbag1
(g2
g3
Ntp1724
Rp1725
(dp1726
g7
I01
sg8
I0
sg9
I01
sg10
Nsg11
I00
sg12
I0
sg13
S'img/wall.png'
p1727
sg15
g16
sg17
g18
(I1200
I550
I50
I50
tp1728
Rp1729
sg21
I0
sg22
(I24
I11
tp1730
sg24
Nsg25
I1
sg26
I11
sg27
I24
sbag1
(g2
g3
Ntp1731
Rp1732
(dp1733
g7
I01
sg8
I0
sg9
I01
sg10
Nsg11
I01
sg12
I0
sg13
S'img/wall.png'
p1734
sg15
g16
sg17
g18
(I0
I600
I50
I50
tp1735
Rp1736
sg21
I0
sg22
(I0
I12
tp1737
sg24
Nsg25
I1
sg26
I12
sg27
I0
sbag1
(g2
g3
Ntp1738
Rp1739
(dp1740
g7
I00
sg8
I0
sg9
I01
sg10
Nsg11
I01
sg12
I0
sg13
S'img/sand.png'
p1741
sg15
g180
sg17
g18
(I50
I600
I50
I50
tp1742
Rp1743
sg21
I0
sg22
(I1
I12
tp1744
sg24
Nsg25
I0
sg26
I12
sg27
I1
sbag1
(g2
g3
Ntp1745
Rp1746
(dp1747
g7
I00
sg8
I0
sg9
I01
sg10
Nsg11
I01
sg12
I0
sg13
S'img/sand.png'
p1748
sg15
g180
sg17
g18
(I100
I600
I50
I50
tp1749
Rp1750
sg21
I0
sg22
(I2
I12
tp1751
sg24
Nsg25
I0
sg26
I12
sg27
I2
sbag1
(g2
g3
Ntp1752
Rp1753
(dp1754
g7
I00
sg8
I0
sg9
I01
sg10
Nsg11
I01
sg12
I0
sg13
S'img/sand.png'
p1755
sg15
g180
sg17
g18
(I150
I600
I50
I50
tp1756
Rp1757
sg21
I0
sg22
(I3
I12
tp1758
sg24
Nsg25
I0
sg26
I12
sg27
I3
sbag1
(g2
g3
Ntp1759
Rp1760
(dp1761
g7
I00
sg8
I0
sg9
I01
sg10
Nsg11
I01
sg12
I0
sg13
S'img/sand.png'
p1762
sg15
g180
sg17
g18
(I200
I600
I50
I50
tp1763
Rp1764
sg21
I0
sg22
(I4
I12
tp1765
sg24
Nsg25
I0
sg26
I12
sg27
I4
sbag1
(g2
g3
Ntp1766
Rp1767
(dp1768
g7
I00
sg8
I0
sg9
I01
sg10
Nsg11
I01
sg12
I0
sg13
S'img/sand.png'
p1769
sg15
g180
sg17
g18
(I250
I600
I50
I50
tp1770
Rp1771
sg21
I0
sg22
(I5
I12
tp1772
sg24
Nsg25
I0
sg26
I12
sg27
I5
sbag1
(g2
g3
Ntp1773
Rp1774
(dp1775
g7
I00
sg8
I0
sg9
I01
sg10
Nsg11
I01
sg12
I0
sg13
S'img/sand.png'
p1776
sg15
g180
sg17
g18
(I300
I600
I50
I50
tp1777
Rp1778
sg21
I0
sg22
(I6
I12
tp1779
sg24
Nsg25
I0
sg26
I12
sg27
I6
sbag1
(g2
g3
Ntp1780
Rp1781
(dp1782
g7
I01
sg8
I0
sg9
I01
sg10
Nsg11
I01
sg12
I0
sg13
S'img/wall.png'
p1783
sg15
g16
sg17
g18
(I350
I600
I50
I50
tp1784
Rp1785
sg21
I0
sg22
(I7
I12
tp1786
sg24
Nsg25
I1
sg26
I12
sg27
I7
sbag1
(g2
g3
Ntp1787
Rp1788
(dp1789
g7
I00
sg8
I0
sg9
I01
sg10
Nsg11
I01
sg12
I0
sg13
S'img/sand.png'
p1790
sg15
g180
sg17
g18
(I400
I600
I50
I50
tp1791
Rp1792
sg21
I0
sg22
(I8
I12
tp1793
sg24
Nsg25
I0
sg26
I12
sg27
I8
sbag1
(g2
g3
Ntp1794
Rp1795
(dp1796
g7
I01
sg8
I0
sg9
I01
sg10
Nsg11
I01
sg12
I0
sg13
S'img/wall.png'
p1797
sg15
g16
sg17
g18
(I450
I600
I50
I50
tp1798
Rp1799
sg21
I0
sg22
(I9
I12
tp1800
sg24
Nsg25
I1
sg26
I12
sg27
I9
sbag1
(g2
g3
Ntp1801
Rp1802
(dp1803
g7
I00
sg8
I0
sg9
I01
sg10
Nsg11
I01
sg12
I0
sg13
S'img/sand.png'
p1804
sg15
g180
sg17
g18
(I500
I600
I50
I50
tp1805
Rp1806
sg21
I0
sg22
(I10
I12
tp1807
sg24
Nsg25
I0
sg26
I12
sg27
I10
sbag1
(g2
g3
Ntp1808
Rp1809
(dp1810
g7
I00
sg8
I0
sg9
I01
sg10
Nsg11
I01
sg12
I0
sg13
S'img/sand.png'
p1811
sg15
g180
sg17
g18
(I550
I600
I50
I50
tp1812
Rp1813
sg21
I0
sg22
(I11
I12
tp1814
sg24
Nsg25
I0
sg26
I12
sg27
I11
sbag1
(g2
g3
Ntp1815
Rp1816
(dp1817
g7
I01
sg8
I0
sg9
I01
sg10
Nsg11
I01
sg12
I0
sg13
S'img/wall.png'
p1818
sg15
g16
sg17
g18
(I600
I600
I50
I50
tp1819
Rp1820
sg21
I0
sg22
(I12
I12
tp1821
sg24
Nsg25
I1
sg26
I12
sg27
I12
sbag1
(g2
g3
Ntp1822
Rp1823
(dp1824
g7
I00
sg8
I0
sg9
I01
sg10
Nsg11
I01
sg12
I0
sg13
S'img/sand.png'
p1825
sg15
g180
sg17
g18
(I650
I600
I50
I50
tp1826
Rp1827
sg21
I0
sg22
(I13
I12
tp1828
sg24
Nsg25
I0
sg26
I12
sg27
I13
sbag1
(g2
g3
Ntp1829
Rp1830
(dp1831
g7
I01
sg8
I0
sg9
I01
sg10
Nsg11
I01
sg12
I0
sg13
S'img/wall.png'
p1832
sg15
g16
sg17
g18
(I700
I600
I50
I50
tp1833
Rp1834
sg21
I0
sg22
(I14
I12
tp1835
sg24
Nsg25
I1
sg26
I12
sg27
I14
sbag1
(g2
g3
Ntp1836
Rp1837
(dp1838
g7
I00
sg8
I0
sg9
I01
sg10
Nsg11
I01
sg12
I0
sg13
S'img/sand.png'
p1839
sg15
g180
sg17
g18
(I750
I600
I50
I50
tp1840
Rp1841
sg21
I0
sg22
(I15
I12
tp1842
sg24
Nsg25
I0
sg26
I12
sg27
I15
sbag1
(g2
g3
Ntp1843
Rp1844
(dp1845
g7
I00
sg8
I0
sg9
I01
sg10
Nsg11
I01
sg12
I0
sg13
S'img/sand.png'
p1846
sg15
g180
sg17
g18
(I800
I600
I50
I50
tp1847
Rp1848
sg21
I0
sg22
(I16
I12
tp1849
sg24
Nsg25
I0
sg26
I12
sg27
I16
sbag1
(g2
g3
Ntp1850
Rp1851
(dp1852
g7
I00
sg8
I0
sg9
I01
sg10
Nsg11
I01
sg12
I0
sg13
S'img/sand.png'
p1853
sg15
g180
sg17
g18
(I850
I600
I50
I50
tp1854
Rp1855
sg21
I0
sg22
(I17
I12
tp1856
sg24
Nsg25
I0
sg26
I12
sg27
I17
sbag1
(g2
g3
Ntp1857
Rp1858
(dp1859
g7
I00
sg8
I0
sg9
I01
sg10
Nsg11
I00
sg12
I0
sg13
S'img/sand.png'
p1860
sg15
g180
sg17
g18
(I900
I600
I50
I50
tp1861
Rp1862
sg21
I0
sg22
(I18
I12
tp1863
sg24
Nsg25
I0
sg26
I12
sg27
I18
sbag1
(g2
g3
Ntp1864
Rp1865
(dp1866
g7
I00
sg8
I0
sg9
I01
sg10
Nsg11
I00
sg12
I0
sg13
S'img/sand.png'
p1867
sg15
g180
sg17
g18
(I950
I600
I50
I50
tp1868
Rp1869
sg21
I0
sg22
(I19
I12
tp1870
sg24
Nsg25
I0
sg26
I12
sg27
I19
sbag1
(g2
g3
Ntp1871
Rp1872
(dp1873
g7
I00
sg8
I0
sg9
I01
sg10
Nsg11
I00
sg12
I0
sg13
S'img/sand.png'
p1874
sg15
g180
sg17
g18
(I1000
I600
I50
I50
tp1875
Rp1876
sg21
I0
sg22
(I20
I12
tp1877
sg24
Nsg25
I0
sg26
I12
sg27
I20
sbag1
(g2
g3
Ntp1878
Rp1879
(dp1880
g7
I00
sg8
I0
sg9
I01
sg10
Nsg11
I00
sg12
I0
sg13
S'img/sand.png'
p1881
sg15
g180
sg17
g18
(I1050
I600
I50
I50
tp1882
Rp1883
sg21
I0
sg22
(I21
I12
tp1884
sg24
Nsg25
I0
sg26
I12
sg27
I21
sbag1
(g2
g3
Ntp1885
Rp1886
(dp1887
g7
I00
sg8
I0
sg9
I01
sg10
Nsg11
I00
sg12
I0
sg13
S'img/sand.png'
p1888
sg15
g180
sg17
g18
(I1100
I600
I50
I50
tp1889
Rp1890
sg21
I0
sg22
(I22
I12
tp1891
sg24
Nsg25
I0
sg26
I12
sg27
I22
sbag1
(g2
g3
Ntp1892
Rp1893
(dp1894
g7
I00
sg8
I0
sg9
I01
sg10
Nsg11
I00
sg12
I0
sg13
S'img/sand.png'
p1895
sg15
g180
sg17
g18
(I1150
I600
I50
I50
tp1896
Rp1897
sg21
I0
sg22
(I23
I12
tp1898
sg24
Nsg25
I0
sg26
I12
sg27
I23
sbag1
(g2
g3
Ntp1899
Rp1900
(dp1901
g7
I01
sg8
I0
sg9
I01
sg10
Nsg11
I00
sg12
I0
sg13
S'img/wall.png'
p1902
sg15
g16
sg17
g18
(I1200
I600
I50
I50
tp1903
Rp1904
sg21
I0
sg22
(I24
I12
tp1905
sg24
Nsg25
I1
sg26
I12
sg27
I24
sbag1
(g2
g3
Ntp1906
Rp1907
(dp1908
g7
I01
sg8
I0
sg9
I01
sg10
Nsg11
I01
sg12
I0
sg13
S'img/wall.png'
p1909
sg15
g16
sg17
g18
(I0
I650
I50
I50
tp1910
Rp1911
sg21
I0
sg22
(I0
I13
tp1912
sg24
Nsg25
I1
sg26
I13
sg27
I0
sbag1
(g2
g3
Ntp1913
Rp1914
(dp1915
g7
I00
sg8
I0
sg9
I01
sg10
Nsg11
I01
sg12
I0
sg13
S'img/sand.png'
p1916
sg15
g180
sg17
g18
(I50
I650
I50
I50
tp1917
Rp1918
sg21
I0
sg22
(I1
I13
tp1919
sg24
Nsg25
I0
sg26
I13
sg27
I1
sbag1
(g2
g3
Ntp1920
Rp1921
(dp1922
g7
I00
sg8
I0
sg9
I01
sg10
Nsg11
I01
sg12
I0
sg13
S'img/sand.png'
p1923
sg15
g180
sg17
g18
(I100
I650
I50
I50
tp1924
Rp1925
sg21
I0
sg22
(I2
I13
tp1926
sg24
Nsg25
I0
sg26
I13
sg27
I2
sbag1
(g2
g3
Ntp1927
Rp1928
(dp1929
g7
I00
sg8
I0
sg9
I01
sg10
Nsg11
I01
sg12
I0
sg13
S'img/sand.png'
p1930
sg15
g180
sg17
g18
(I150
I650
I50
I50
tp1931
Rp1932
sg21
I0
sg22
(I3
I13
tp1933
sg24
Nsg25
I0
sg26
I13
sg27
I3
sbag1
(g2
g3
Ntp1934
Rp1935
(dp1936
g7
I00
sg8
I0
sg9
I01
sg10
Nsg11
I01
sg12
I0
sg13
S'img/sand.png'
p1937
sg15
g180
sg17
g18
(I200
I650
I50
I50
tp1938
Rp1939
sg21
I0
sg22
(I4
I13
tp1940
sg24
Nsg25
I0
sg26
I13
sg27
I4
sbag1
(g2
g3
Ntp1941
Rp1942
(dp1943
g7
I00
sg8
I0
sg9
I01
sg10
Nsg11
I01
sg12
I0
sg13
S'img/sand.png'
p1944
sg15
g180
sg17
g18
(I250
I650
I50
I50
tp1945
Rp1946
sg21
I0
sg22
(I5
I13
tp1947
sg24
Nsg25
I0
sg26
I13
sg27
I5
sbag1
(g2
g3
Ntp1948
Rp1949
(dp1950
g7
I01
sg8
I0
sg9
I01
sg10
Nsg11
I01
sg12
I0
sg13
S'img/wall.png'
p1951
sg15
g16
sg17
g18
(I300
I650
I50
I50
tp1952
Rp1953
sg21
I0
sg22
(I6
I13
tp1954
sg24
Nsg25
I1
sg26
I13
sg27
I6
sbag1
(g2
g3
Ntp1955
Rp1956
(dp1957
g7
I00
sg8
I0
sg9
I01
sg10
Nsg11
I01
sg12
I0
sg13
S'img/sand.png'
p1958
sg15
g180
sg17
g18
(I350
I650
I50
I50
tp1959
Rp1960
sg21
I0
sg22
(I7
I13
tp1961
sg24
Nsg25
I0
sg26
I13
sg27
I7
sbag1
(g2
g3
Ntp1962
Rp1963
(dp1964
g7
I00
sg8
I0
sg9
I01
sg10
Nsg11
I01
sg12
I0
sg13
S'img/sand.png'
p1965
sg15
g180
sg17
g18
(I400
I650
I50
I50
tp1966
Rp1967
sg21
I0
sg22
(I8
I13
tp1968
sg24
Nsg25
I0
sg26
I13
sg27
I8
sbag1
(g2
g3
Ntp1969
Rp1970
(dp1971
g7
I01
sg8
I0
sg9
I01
sg10
Nsg11
I01
sg12
I0
sg13
S'img/wall.png'
p1972
sg15
g16
sg17
g18
(I450
I650
I50
I50
tp1973
Rp1974
sg21
I0
sg22
(I9
I13
tp1975
sg24
Nsg25
I1
sg26
I13
sg27
I9
sbag1
(g2
g3
Ntp1976
Rp1977
(dp1978
g7
I00
sg8
I0
sg9
I01
sg10
Nsg11
I01
sg12
I0
sg13
S'img/sand.png'
p1979
sg15
g180
sg17
g18
(I500
I650
I50
I50
tp1980
Rp1981
sg21
I0
sg22
(I10
I13
tp1982
sg24
Nsg25
I0
sg26
I13
sg27
I10
sbag1
(g2
g3
Ntp1983
Rp1984
(dp1985
g7
I00
sg8
I0
sg9
I01
sg10
Nsg11
I01
sg12
I0
sg13
S'img/sand.png'
p1986
sg15
g180
sg17
g18
(I550
I650
I50
I50
tp1987
Rp1988
sg21
I0
sg22
(I11
I13
tp1989
sg24
Nsg25
I0
sg26
I13
sg27
I11
sbag1
(g2
g3
Ntp1990
Rp1991
(dp1992
g7
I01
sg8
I0
sg9
I01
sg10
Nsg11
I01
sg12
I0
sg13
S'img/wall.png'
p1993
sg15
g16
sg17
g18
(I600
I650
I50
I50
tp1994
Rp1995
sg21
I0
sg22
(I12
I13
tp1996
sg24
Nsg25
I1
sg26
I13
sg27
I12
sbag1
(g2
g3
Ntp1997
Rp1998
(dp1999
g7
I00
sg8
I0
sg9
I01
sg10
Nsg11
I01
sg12
I0
sg13
S'img/sand.png'
p2000
sg15
g180
sg17
g18
(I650
I650
I50
I50
tp2001
Rp2002
sg21
I0
sg22
(I13
I13
tp2003
sg24
Nsg25
I0
sg26
I13
sg27
I13
sbag1
(g2
g3
Ntp2004
Rp2005
(dp2006
g7
I01
sg8
I0
sg9
I01
sg10
Nsg11
I01
sg12
I0
sg13
S'img/wall.png'
p2007
sg15
g16
sg17
g18
(I700
I650
I50
I50
tp2008
Rp2009
sg21
I0
sg22
(I14
I13
tp2010
sg24
Nsg25
I1
sg26
I13
sg27
I14
sbag1
(g2
g3
Ntp2011
Rp2012
(dp2013
g7
I00
sg8
I0
sg9
I01
sg10
Nsg11
I01
sg12
I0
sg13
S'img/sand.png'
p2014
sg15
g180
sg17
g18
(I750
I650
I50
I50
tp2015
Rp2016
sg21
I0
sg22
(I15
I13
tp2017
sg24
Nsg25
I0
sg26
I13
sg27
I15
sbag1
(g2
g3
Ntp2018
Rp2019
(dp2020
g7
I00
sg8
I0
sg9
I01
sg10
Nsg11
I01
sg12
I0
sg13
S'img/sand.png'
p2021
sg15
g180
sg17
g18
(I800
I650
I50
I50
tp2022
Rp2023
sg21
I0
sg22
(I16
I13
tp2024
sg24
Nsg25
I0
sg26
I13
sg27
I16
sbag1
(g2
g3
Ntp2025
Rp2026
(dp2027
g7
I00
sg8
I0
sg9
I01
sg10
Nsg11
I01
sg12
I0
sg13
S'img/sand.png'
p2028
sg15
g180
sg17
g18
(I850
I650
I50
I50
tp2029
Rp2030
sg21
I0
sg22
(I17
I13
tp2031
sg24
Nsg25
I0
sg26
I13
sg27
I17
sbag1
(g2
g3
Ntp2032
Rp2033
(dp2034
g7
I00
sg8
I0
sg9
I01
sg10
Nsg11
I00
sg12
I0
sg13
S'img/sand.png'
p2035
sg15
g180
sg17
g18
(I900
I650
I50
I50
tp2036
Rp2037
sg21
I0
sg22
(I18
I13
tp2038
sg24
Nsg25
I0
sg26
I13
sg27
I18
sbag1
(g2
g3
Ntp2039
Rp2040
(dp2041
g7
I00
sg8
I0
sg9
I01
sg10
Nsg11
I00
sg12
I0
sg13
S'img/sand.png'
p2042
sg15
g180
sg17
g18
(I950
I650
I50
I50
tp2043
Rp2044
sg21
I0
sg22
(I19
I13
tp2045
sg24
Nsg25
I0
sg26
I13
sg27
I19
sbag1
(g2
g3
Ntp2046
Rp2047
(dp2048
g7
I00
sg8
I0
sg9
I01
sg10
Nsg11
I00
sg12
I0
sg13
S'img/sand.png'
p2049
sg15
g180
sg17
g18
(I1000
I650
I50
I50
tp2050
Rp2051
sg21
I0
sg22
(I20
I13
tp2052
sg24
Nsg25
I0
sg26
I13
sg27
I20
sbag1
(g2
g3
Ntp2053
Rp2054
(dp2055
g7
I00
sg8
I0
sg9
I01
sg10
Nsg11
I00
sg12
I0
sg13
S'img/sand.png'
p2056
sg15
g180
sg17
g18
(I1050
I650
I50
I50
tp2057
Rp2058
sg21
I0
sg22
(I21
I13
tp2059
sg24
Nsg25
I0
sg26
I13
sg27
I21
sbag1
(g2
g3
Ntp2060
Rp2061
(dp2062
g7
I00
sg8
I0
sg9
I01
sg10
Nsg11
I00
sg12
I0
sg13
S'img/sand.png'
p2063
sg15
g180
sg17
g18
(I1100
I650
I50
I50
tp2064
Rp2065
sg21
I0
sg22
(I22
I13
tp2066
sg24
Nsg25
I0
sg26
I13
sg27
I22
sbag1
(g2
g3
Ntp2067
Rp2068
(dp2069
g7
I00
sg8
I0
sg9
I01
sg10
Nsg11
I00
sg12
I0
sg13
S'img/sand.png'
p2070
sg15
g180
sg17
g18
(I1150
I650
I50
I50
tp2071
Rp2072
sg21
I0
sg22
(I23
I13
tp2073
sg24
Nsg25
I0
sg26
I13
sg27
I23
sbag1
(g2
g3
Ntp2074
Rp2075
(dp2076
g7
I01
sg8
I0
sg9
I01
sg10
Nsg11
I00
sg12
I0
sg13
S'img/wall.png'
p2077
sg15
g16
sg17
g18
(I1200
I650
I50
I50
tp2078
Rp2079
sg21
I0
sg22
(I24
I13
tp2080
sg24
Nsg25
I1
sg26
I13
sg27
I24
sbag1
(g2
g3
Ntp2081
Rp2082
(dp2083
g7
I01
sg8
I0
sg9
I01
sg10
Nsg11
I01
sg12
I0
sg13
S'img/wall.png'
p2084
sg15
g16
sg17
g18
(I0
I700
I50
I50
tp2085
Rp2086
sg21
I0
sg22
(I0
I14
tp2087
sg24
Nsg25
I1
sg26
I14
sg27
I0
sbag1
(g2
g3
Ntp2088
Rp2089
(dp2090
g7
I00
sg8
I0
sg9
I01
sg10
Nsg11
I01
sg12
I0
sg13
S'img/sand.png'
p2091
sg15
g180
sg17
g18
(I50
I700
I50
I50
tp2092
Rp2093
sg21
I0
sg22
(I1
I14
tp2094
sg24
Nsg25
I0
sg26
I14
sg27
I1
sbag1
(g2
g3
Ntp2095
Rp2096
(dp2097
g7
I00
sg8
I0
sg9
I01
sg10
Nsg11
I01
sg12
I0
sg13
S'img/sand.png'
p2098
sg15
g180
sg17
g18
(I100
I700
I50
I50
tp2099
Rp2100
sg21
I0
sg22
(I2
I14
tp2101
sg24
Nsg25
I0
sg26
I14
sg27
I2
sbag1
(g2
g3
Ntp2102
Rp2103
(dp2104
g7
I00
sg8
I0
sg9
I01
sg10
Nsg11
I01
sg12
I0
sg13
S'img/sand.png'
p2105
sg15
g180
sg17
g18
(I150
I700
I50
I50
tp2106
Rp2107
sg21
I0
sg22
(I3
I14
tp2108
sg24
Nsg25
I0
sg26
I14
sg27
I3
sbag1
(g2
g3
Ntp2109
Rp2110
(dp2111
g7
I00
sg8
I0
sg9
I01
sg10
Nsg11
I01
sg12
I0
sg13
S'img/sand.png'
p2112
sg15
g180
sg17
g18
(I200
I700
I50
I50
tp2113
Rp2114
sg21
I0
sg22
(I4
I14
tp2115
sg24
Nsg25
I0
sg26
I14
sg27
I4
sbag1
(g2
g3
Ntp2116
Rp2117
(dp2118
g7
I00
sg8
I0
sg9
I01
sg10
Nsg11
I01
sg12
I0
sg13
S'img/sand.png'
p2119
sg15
g180
sg17
g18
(I250
I700
I50
I50
tp2120
Rp2121
sg21
I0
sg22
(I5
I14
tp2122
sg24
Nsg25
I0
sg26
I14
sg27
I5
sbag1
(g2
g3
Ntp2123
Rp2124
(dp2125
g7
I01
sg8
I0
sg9
I01
sg10
Nsg11
I01
sg12
I0
sg13
S'img/wall.png'
p2126
sg15
g16
sg17
g18
(I300
I700
I50
I50
tp2127
Rp2128
sg21
I0
sg22
(I6
I14
tp2129
sg24
Nsg25
I1
sg26
I14
sg27
I6
sbag1
(g2
g3
Ntp2130
Rp2131
(dp2132
g7
I00
sg8
I0
sg9
I01
sg10
Nsg11
I01
sg12
I0
sg13
S'img/sand.png'
p2133
sg15
g180
sg17
g18
(I350
I700
I50
I50
tp2134
Rp2135
sg21
I0
sg22
(I7
I14
tp2136
sg24
Nsg25
I0
sg26
I14
sg27
I7
sbag1
(g2
g3
Ntp2137
Rp2138
(dp2139
g7
I00
sg8
I0
sg9
I01
sg10
Nsg11
I01
sg12
I0
sg13
S'img/sand.png'
p2140
sg15
g180
sg17
g18
(I400
I700
I50
I50
tp2141
Rp2142
sg21
I0
sg22
(I8
I14
tp2143
sg24
Nsg25
I0
sg26
I14
sg27
I8
sbag1
(g2
g3
Ntp2144
Rp2145
(dp2146
g7
I00
sg8
I0
sg9
I01
sg10
Nsg11
I01
sg12
I0
sg13
S'img/sand.png'
p2147
sg15
g180
sg17
g18
(I450
I700
I50
I50
tp2148
Rp2149
sg21
I0
sg22
(I9
I14
tp2150
sg24
Nsg25
I0
sg26
I14
sg27
I9
sbag1
(g2
g3
Ntp2151
Rp2152
(dp2153
g7
I00
sg8
I0
sg9
I01
sg10
Nsg11
I01
sg12
I0
sg13
S'img/sand.png'
p2154
sg15
g180
sg17
g18
(I500
I700
I50
I50
tp2155
Rp2156
sg21
I0
sg22
(I10
I14
tp2157
sg24
Nsg25
I0
sg26
I14
sg27
I10
sbag1
(g2
g3
Ntp2158
Rp2159
(dp2160
g7
I00
sg8
I0
sg9
I01
sg10
Nsg11
I01
sg12
I0
sg13
S'img/sand.png'
p2161
sg15
g180
sg17
g18
(I550
I700
I50
I50
tp2162
Rp2163
sg21
I0
sg22
(I11
I14
tp2164
sg24
Nsg25
I0
sg26
I14
sg27
I11
sbag1
(g2
g3
Ntp2165
Rp2166
(dp2167
g7
I01
sg8
I0
sg9
I01
sg10
Nsg11
I01
sg12
I0
sg13
S'img/wall.png'
p2168
sg15
g16
sg17
g18
(I600
I700
I50
I50
tp2169
Rp2170
sg21
I0
sg22
(I12
I14
tp2171
sg24
Nsg25
I1
sg26
I14
sg27
I12
sbag1
(g2
g3
Ntp2172
Rp2173
(dp2174
g7
I00
sg8
I0
sg9
I01
sg10
Nsg11
I01
sg12
I0
sg13
S'img/sand.png'
p2175
sg15
g180
sg17
g18
(I650
I700
I50
I50
tp2176
Rp2177
sg21
I0
sg22
(I13
I14
tp2178
sg24
Nsg25
I0
sg26
I14
sg27
I13
sbag1
(g2
g3
Ntp2179
Rp2180
(dp2181
g7
I00
sg8
I0
sg9
I01
sg10
Nsg11
I01
sg12
I0
sg13
S'img/sand.png'
p2182
sg15
g180
sg17
g18
(I700
I700
I50
I50
tp2183
Rp2184
sg21
I0
sg22
(I14
I14
tp2185
sg24
Nsg25
I0
sg26
I14
sg27
I14
sbag1
(g2
g3
Ntp2186
Rp2187
(dp2188
g7
I00
sg8
I0
sg9
I01
sg10
Nsg11
I01
sg12
I0
sg13
S'img/sand.png'
p2189
sg15
g180
sg17
g18
(I750
I700
I50
I50
tp2190
Rp2191
sg21
I0
sg22
(I15
I14
tp2192
sg24
Nsg25
I0
sg26
I14
sg27
I15
sbag1
(g2
g3
Ntp2193
Rp2194
(dp2195
g7
I00
sg8
I0
sg9
I01
sg10
Nsg11
I01
sg12
I0
sg13
S'img/sand.png'
p2196
sg15
g180
sg17
g18
(I800
I700
I50
I50
tp2197
Rp2198
sg21
I0
sg22
(I16
I14
tp2199
sg24
Nsg25
I0
sg26
I14
sg27
I16
sbag1
(g2
g3
Ntp2200
Rp2201
(dp2202
g7
I00
sg8
I0
sg9
I01
sg10
Nsg11
I01
sg12
I0
sg13
S'img/sand.png'
p2203
sg15
g180
sg17
g18
(I850
I700
I50
I50
tp2204
Rp2205
sg21
I0
sg22
(I17
I14
tp2206
sg24
Nsg25
I0
sg26
I14
sg27
I17
sbag1
(g2
g3
Ntp2207
Rp2208
(dp2209
g7
I00
sg8
I0
sg9
I01
sg10
Nsg11
I00
sg12
I0
sg13
S'img/sand.png'
p2210
sg15
g180
sg17
g18
(I900
I700
I50
I50
tp2211
Rp2212
sg21
I0
sg22
(I18
I14
tp2213
sg24
Nsg25
I0
sg26
I14
sg27
I18
sbag1
(g2
g3
Ntp2214
Rp2215
(dp2216
g7
I00
sg8
I0
sg9
I01
sg10
Nsg11
I00
sg12
I0
sg13
S'img/sand.png'
p2217
sg15
g180
sg17
g18
(I950
I700
I50
I50
tp2218
Rp2219
sg21
I0
sg22
(I19
I14
tp2220
sg24
Nsg25
I0
sg26
I14
sg27
I19
sbag1
(g2
g3
Ntp2221
Rp2222
(dp2223
g7
I00
sg8
I0
sg9
I01
sg10
Nsg11
I00
sg12
I0
sg13
S'img/sand.png'
p2224
sg15
g180
sg17
g18
(I1000
I700
I50
I50
tp2225
Rp2226
sg21
I0
sg22
(I20
I14
tp2227
sg24
Nsg25
I0
sg26
I14
sg27
I20
sbag1
(g2
g3
Ntp2228
Rp2229
(dp2230
g7
I00
sg8
I0
sg9
I01
sg10
Nsg11
I00
sg12
I0
sg13
S'img/sand.png'
p2231
sg15
g180
sg17
g18
(I1050
I700
I50
I50
tp2232
Rp2233
sg21
I0
sg22
(I21
I14
tp2234
sg24
Nsg25
I0
sg26
I14
sg27
I21
sbag1
(g2
g3
Ntp2235
Rp2236
(dp2237
g7
I00
sg8
I0
sg9
I01
sg10
Nsg11
I00
sg12
I0
sg13
S'img/sand.png'
p2238
sg15
g180
sg17
g18
(I1100
I700
I50
I50
tp2239
Rp2240
sg21
I0
sg22
(I22
I14
tp2241
sg24
Nsg25
I0
sg26
I14
sg27
I22
sbag1
(g2
g3
Ntp2242
Rp2243
(dp2244
g7
I00
sg8
I0
sg9
I01
sg10
Nsg11
I00
sg12
I0
sg13
S'img/sand.png'
p2245
sg15
g180
sg17
g18
(I1150
I700
I50
I50
tp2246
Rp2247
sg21
I0
sg22
(I23
I14
tp2248
sg24
Nsg25
I0
sg26
I14
sg27
I23
sbag1
(g2
g3
Ntp2249
Rp2250
(dp2251
g7
I01
sg8
I0
sg9
I01
sg10
Nsg11
I00
sg12
I0
sg13
S'img/wall.png'
p2252
sg15
g16
sg17
g18
(I1200
I700
I50
I50
tp2253
Rp2254
sg21
I0
sg22
(I24
I14
tp2255
sg24
Nsg25
I1
sg26
I14
sg27
I24
sbag1
(g2
g3
Ntp2256
Rp2257
(dp2258
g7
I01
sg8
I0
sg9
I01
sg10
Nsg11
I01
sg12
I0
sg13
S'img/wall.png'
p2259
sg15
g16
sg17
g18
(I0
I750
I50
I50
tp2260
Rp2261
sg21
I0
sg22
(I0
I15
tp2262
sg24
Nsg25
I1
sg26
I15
sg27
I0
sbag1
(g2
g3
Ntp2263
Rp2264
(dp2265
g7
I01
sg8
I0
sg9
I01
sg10
Nsg11
I01
sg12
I0
sg13
S'img/wall.png'
p2266
sg15
g16
sg17
g18
(I50
I750
I50
I50
tp2267
Rp2268
sg21
I0
sg22
(I1
I15
tp2269
sg24
Nsg25
I1
sg26
I15
sg27
I1
sbag1
(g2
g3
Ntp2270
Rp2271
(dp2272
g7
I01
sg8
I0
sg9
I01
sg10
Nsg11
I01
sg12
I0
sg13
S'img/wall.png'
p2273
sg15
g16
sg17
g18
(I100
I750
I50
I50
tp2274
Rp2275
sg21
I0
sg22
(I2
I15
tp2276
sg24
Nsg25
I1
sg26
I15
sg27
I2
sbag1
(g2
g3
Ntp2277
Rp2278
(dp2279
g7
I01
sg8
I0
sg9
I01
sg10
Nsg11
I01
sg12
I0
sg13
S'img/wall.png'
p2280
sg15
g16
sg17
g18
(I150
I750
I50
I50
tp2281
Rp2282
sg21
I0
sg22
(I3
I15
tp2283
sg24
Nsg25
I1
sg26
I15
sg27
I3
sbag1
(g2
g3
Ntp2284
Rp2285
(dp2286
g7
I01
sg8
I0
sg9
I01
sg10
Nsg11
I01
sg12
I0
sg13
S'img/wall.png'
p2287
sg15
g16
sg17
g18
(I200
I750
I50
I50
tp2288
Rp2289
sg21
I0
sg22
(I4
I15
tp2290
sg24
Nsg25
I1
sg26
I15
sg27
I4
sbag1
(g2
g3
Ntp2291
Rp2292
(dp2293
g7
I01
sg8
I0
sg9
I01
sg10
Nsg11
I01
sg12
I0
sg13
S'img/wall.png'
p2294
sg15
g16
sg17
g18
(I250
I750
I50
I50
tp2295
Rp2296
sg21
I0
sg22
(I5
I15
tp2297
sg24
Nsg25
I1
sg26
I15
sg27
I5
sbag1
(g2
g3
Ntp2298
Rp2299
(dp2300
g7
I01
sg8
I0
sg9
I01
sg10
Nsg11
I01
sg12
I0
sg13
S'img/wall.png'
p2301
sg15
g16
sg17
g18
(I300
I750
I50
I50
tp2302
Rp2303
sg21
I0
sg22
(I6
I15
tp2304
sg24
Nsg25
I1
sg26
I15
sg27
I6
sbag1
(g2
g3
Ntp2305
Rp2306
(dp2307
g7
I01
sg8
I0
sg9
I01
sg10
Nsg11
I01
sg12
I0
sg13
S'img/wall.png'
p2308
sg15
g16
sg17
g18
(I350
I750
I50
I50
tp2309
Rp2310
sg21
I0
sg22
(I7
I15
tp2311
sg24
Nsg25
I1
sg26
I15
sg27
I7
sbag1
(g2
g3
Ntp2312
Rp2313
(dp2314
g7
I01
sg8
I0
sg9
I01
sg10
Nsg11
I01
sg12
I0
sg13
S'img/wall.png'
p2315
sg15
g16
sg17
g18
(I400
I750
I50
I50
tp2316
Rp2317
sg21
I0
sg22
(I8
I15
tp2318
sg24
Nsg25
I1
sg26
I15
sg27
I8
sbag1
(g2
g3
Ntp2319
Rp2320
(dp2321
g7
I01
sg8
I0
sg9
I01
sg10
Nsg11
I01
sg12
I0
sg13
S'img/wall.png'
p2322
sg15
g16
sg17
g18
(I450
I750
I50
I50
tp2323
Rp2324
sg21
I0
sg22
(I9
I15
tp2325
sg24
Nsg25
I1
sg26
I15
sg27
I9
sbag1
(g2
g3
Ntp2326
Rp2327
(dp2328
g7
I01
sg8
I0
sg9
I01
sg10
Nsg11
I01
sg12
I0
sg13
S'img/wall.png'
p2329
sg15
g16
sg17
g18
(I500
I750
I50
I50
tp2330
Rp2331
sg21
I0
sg22
(I10
I15
tp2332
sg24
Nsg25
I1
sg26
I15
sg27
I10
sbag1
(g2
g3
Ntp2333
Rp2334
(dp2335
g7
I01
sg8
I0
sg9
I01
sg10
Nsg11
I01
sg12
I0
sg13
S'img/wall.png'
p2336
sg15
g16
sg17
g18
(I550
I750
I50
I50
tp2337
Rp2338
sg21
I0
sg22
(I11
I15
tp2339
sg24
Nsg25
I1
sg26
I15
sg27
I11
sbag1
(g2
g3
Ntp2340
Rp2341
(dp2342
g7
I00
sg8
I0
sg9
I01
sg10
Nsg11
I01
sg12
I0
sg13
S'img/stairsDown.png'
p2343
sg15
S'stairsDown.png'
p2344
sg17
g18
(I600
I750
I50
I50
tp2345
Rp2346
sg21
I0
sg22
(I12
I15
tp2347
sg24
Nsg25
I2
sg26
I15
sg27
I12
sbag1
(g2
g3
Ntp2348
Rp2349
(dp2350
g7
I01
sg8
I0
sg9
I01
sg10
Nsg11
I01
sg12
I0
sg13
S'img/wall.png'
p2351
sg15
g16
sg17
g18
(I650
I750
I50
I50
tp2352
Rp2353
sg21
I0
sg22
(I13
I15
tp2354
sg24
Nsg25
I1
sg26
I15
sg27
I13
sbag1
(g2
g3
Ntp2355
Rp2356
(dp2357
g7
I01
sg8
I0
sg9
I01
sg10
Nsg11
I01
sg12
I0
sg13
S'img/wall.png'
p2358
sg15
g16
sg17
g18
(I700
I750
I50
I50
tp2359
Rp2360
sg21
I0
sg22
(I14
I15
tp2361
sg24
Nsg25
I1
sg26
I15
sg27
I14
sbag1
(g2
g3
Ntp2362
Rp2363
(dp2364
g7
I01
sg8
I0
sg9
I01
sg10
Nsg11
I01
sg12
I0
sg13
S'img/wall.png'
p2365
sg15
g16
sg17
g18
(I750
I750
I50
I50
tp2366
Rp2367
sg21
I0
sg22
(I15
I15
tp2368
sg24
Nsg25
I1
sg26
I15
sg27
I15
sbag1
(g2
g3
Ntp2369
Rp2370
(dp2371
g7
I01
sg8
I0
sg9
I01
sg10
Nsg11
I01
sg12
I0
sg13
S'img/wall.png'
p2372
sg15
g16
sg17
g18
(I800
I750
I50
I50
tp2373
Rp2374
sg21
I0
sg22
(I16
I15
tp2375
sg24
Nsg25
I1
sg26
I15
sg27
I16
sbag1
(g2
g3
Ntp2376
Rp2377
(dp2378
g7
I01
sg8
I0
sg9
I01
sg10
Nsg11
I01
sg12
I0
sg13
S'img/wall.png'
p2379
sg15
g16
sg17
g18
(I850
I750
I50
I50
tp2380
Rp2381
sg21
I0
sg22
(I17
I15
tp2382
sg24
Nsg25
I1
sg26
I15
sg27
I17
sbag1
(g2
g3
Ntp2383
Rp2384
(dp2385
g7
I01
sg8
I0
sg9
I01
sg10
Nsg11
I00
sg12
I0
sg13
S'img/wall.png'
p2386
sg15
g16
sg17
g18
(I900
I750
I50
I50
tp2387
Rp2388
sg21
I0
sg22
(I18
I15
tp2389
sg24
Nsg25
I1
sg26
I15
sg27
I18
sbag1
(g2
g3
Ntp2390
Rp2391
(dp2392
g7
I01
sg8
I0
sg9
I01
sg10
Nsg11
I00
sg12
I0
sg13
S'img/wall.png'
p2393
sg15
g16
sg17
g18
(I950
I750
I50
I50
tp2394
Rp2395
sg21
I0
sg22
(I19
I15
tp2396
sg24
Nsg25
I1
sg26
I15
sg27
I19
sbag1
(g2
g3
Ntp2397
Rp2398
(dp2399
g7
I01
sg8
I0
sg9
I01
sg10
Nsg11
I00
sg12
I0
sg13
S'img/wall.png'
p2400
sg15
g16
sg17
g18
(I1000
I750
I50
I50
tp2401
Rp2402
sg21
I0
sg22
(I20
I15
tp2403
sg24
Nsg25
I1
sg26
I15
sg27
I20
sbag1
(g2
g3
Ntp2404
Rp2405
(dp2406
g7
I01
sg8
I0
sg9
I01
sg10
Nsg11
I00
sg12
I0
sg13
S'img/wall.png'
p2407
sg15
g16
sg17
g18
(I1050
I750
I50
I50
tp2408
Rp2409
sg21
I0
sg22
(I21
I15
tp2410
sg24
Nsg25
I1
sg26
I15
sg27
I21
sbag1
(g2
g3
Ntp2411
Rp2412
(dp2413
g7
I01
sg8
I0
sg9
I01
sg10
Nsg11
I00
sg12
I0
sg13
S'img/wall.png'
p2414
sg15
g16
sg17
g18
(I1100
I750
I50
I50
tp2415
Rp2416
sg21
I0
sg22
(I22
I15
tp2417
sg24
Nsg25
I1
sg26
I15
sg27
I22
sbag1
(g2
g3
Ntp2418
Rp2419
(dp2420
g7
I01
sg8
I0
sg9
I01
sg10
Nsg11
I00
sg12
I0
sg13
S'img/wall.png'
p2421
sg15
g16
sg17
g18
(I1150
I750
I50
I50
tp2422
Rp2423
sg21
I0
sg22
(I23
I15
tp2424
sg24
Nsg25
I1
sg26
I15
sg27
I23
sbag1
(g2
g3
Ntp2425
Rp2426
(dp2427
g7
I01
sg8
I0
sg9
I01
sg10
Nsg11
I00
sg12
I0
sg13
S'img/wall.png'
p2428
sg15
g16
sg17
g18
(I1200
I750
I50
I50
tp2429
Rp2430
sg21
I0
sg22
(I24
I15
tp2431
sg24
Nsg25
I1
sg26
I15
sg27
I24
sbag1
(g2
g3
Ntp2432
Rp2433
(dp2434
g7
I01
sg8
I0
sg9
I01
sg10
Nsg11
I00
sg12
I0
sg13
S'img/wall.png'
p2435
sg15
g16
sg17
g18
(I550
I800
I50
I50
tp2436
Rp2437
sg21
I0
sg22
(I11
I16
tp2438
sg24
Nsg25
I1
sg26
I16
sg27
I11
sbag1
(g2
g3
Ntp2439
Rp2440
(dp2441
g7
I01
sg8
I0
sg9
I01
sg10
Nsg11
I00
sg12
I0
sg13
S'img/wall.png'
p2442
sg15
g16
sg17
g18
(I600
I800
I50
I50
tp2443
Rp2444
sg21
I0
sg22
(I12
I16
tp2445
sg24
Nsg25
I1
sg26
I16
sg27
I12
sbag1
(g2
g3
Ntp2446
Rp2447
(dp2448
g7
I01
sg8
I0
sg9
I01
sg10
Nsg11
I00
sg12
I0
sg13
S'img/wall.png'
p2449
sg15
g16
sg17
g18
(I650
I800
I50
I50
tp2450
Rp2451
sg21
I0
sg22
(I13
I16
tp2452
sg24
Nsg25
I1
sg26
I16
sg27
I13
sbag1
(g2
g3
Ntp2453
Rp2454
(dp2455
g7
I00
sg8
I0
sg9
I01
sg10
Nsg11
I01
sg12
I0
sg13
S'img/sand.png'
p2456
sg15
S'sand.png'
p2457
sg17
g18
(I350
I350
I50
I50
tp2458
Rp2459
sg21
I0
sg22
(I0
I0
tp2460
sg24
Nsg25
I0
sg26
I0
sg27
I0
sbag1
(g2
g3
Ntp2461
Rp2462
(dp2463
g7
I00
sg8
I0
sg9
I01
sg10
Nsg11
I01
sg12
I0
sg13
S'img/sand.png'
p2464
sg15
S'sand.png'
p2465
sg22
(I0
I0
tp2466
sg21
I0
sg17
g18
(I400
I350
I50
I50
tp2467
Rp2468
sg24
Nsg25
I0
sg26
I0
sg27
I0
sbag1
(g2
g3
Ntp2469
Rp2470
(dp2471
g7
I00
sg8
I0
sg9
I01
sg10
Nsg11
I01
sg12
I0
sg13
S'img/sand.png'
p2472
sg15
g2465
sg22
(I0
I0
tp2473
sg21
I0
sg17
g18
(I150
I200
I50
I50
tp2474
Rp2475
sg24
Nsg25
I0
sg26
I0
sg27
I0
sbag1
(g2
g3
Ntp2476
Rp2477
(dp2478
g7
I00
sg8
I0
sg9
I01
sg10
Nsg11
I01
sg12
I0
sg13
S'img/sand.png'
p2479
sg15
g2465
sg22
(I0
I0
tp2480
sg21
I0
sg17
g18
(I150
I150
I50
I50
tp2481
Rp2482
sg24
Nsg25
I0
sg26
I0
sg27
I0
sbag1
(g2
g3
Ntp2483
Rp2484
(dp2485
g7
I00
sg8
I0
sg9
I01
sg10
Nsg11
I01
sg12
I0
sg13
S'img/sand.png'
p2486
sg15
g2465
sg22
(I0
I0
tp2487
sg21
I0
sg17
g18
(I200
I100
I50
I50
tp2488
Rp2489
sg24
Nsg25
I0
sg26
I0
sg27
I0
sbag1
(g2
g3
Ntp2490
Rp2491
(dp2492
g7
I00
sg8
I0
sg9
I01
sg10
Nsg11
I01
sg12
I0
sg13
S'img/sand.png'
p2493
sg15
g2465
sg22
(I0
I0
tp2494
sg21
I0
sg17
g18
(I250
I200
I50
I50
tp2495
Rp2496
sg24
Nsg25
I0
sg26
I0
sg27
I0
sbag1
(g2
g3
Ntp2497
Rp2498
(dp2499
g7
I00
sg8
I0
sg9
I01
sg10
Nsg11
I01
sg12
I0
sg13
S'img/sand.png'
p2500
sg15
g2465
sg22
(I0
I0
tp2501
sg21
I0
sg17
g18
(I200
I200
I50
I50
tp2502
Rp2503
sg24
Nsg25
I0
sg26
I0
sg27
I0
sbag1
(g2
g3
Ntp2504
Rp2505
(dp2506
g7
I00
sg8
I0
sg9
I01
sg10
Nsg11
I01
sg12
I0
sg13
S'img/sand.png'
p2507
sg15
g2465
sg22
(I0
I0
tp2508
sg21
I0
sg17
g18
(I500
I100
I50
I50
tp2509
Rp2510
sg24
Nsg25
I0
sg26
I0
sg27
I0
sbag1
(g2
g3
Ntp2511
Rp2512
(dp2513
g7
I00
sg8
I0
sg9
I01
sg10
Nsg11
I01
sg12
I0
sg13
S'img/sand.png'
p2514
sg15
g2465
sg22
(I0
I0
tp2515
sg21
I0
sg17
g18
(I250
I100
I50
I50
tp2516
Rp2517
sg24
Nsg25
I0
sg26
I0
sg27
I0
sbag1
(g2
g3
Ntp2518
Rp2519
(dp2520
g7
I00
sg8
I0
sg9
I01
sg10
Nsg11
I01
sg12
I0
sg13
S'img/sand.png'
p2521
sg15
g2465
sg22
(I0
I0
tp2522
sg21
I0
sg17
g18
(I250
I50
I50
I50
tp2523
Rp2524
sg24
Nsg25
I0
sg26
I0
sg27
I0
sbag1
(g2
g3
Ntp2525
Rp2526
(dp2527
g7
I00
sg8
I0
sg9
I01
sg10
Nsg11
I01
sg12
I0
sg13
S'img/sand.png'
p2528
sg15
g2465
sg22
(I0
I0
tp2529
sg21
I0
sg17
g18
(I300
I50
I50
I50
tp2530
Rp2531
sg24
Nsg25
I0
sg26
I0
sg27
I0
sbag1
(g2
g3
Ntp2532
Rp2533
(dp2534
g7
I00
sg8
I0
sg9
I01
sg10
Nsg11
I01
sg12
I0
sg13
S'img/sand.png'
p2535
sg15
g2465
sg22
(I0
I0
tp2536
sg21
I0
sg17
g18
(I400
I150
I50
I50
tp2537
Rp2538
sg24
Nsg25
I0
sg26
I0
sg27
I0
sbag1
(g2
g3
Ntp2539
Rp2540
(dp2541
g7
I00
sg8
I0
sg9
I01
sg10
Nsg11
I01
sg12
I0
sg13
S'img/sand.png'
p2542
sg15
g2465
sg22
(I0
I0
tp2543
sg21
I0
sg17
g18
(I300
I100
I50
I50
tp2544
Rp2545
sg24
Nsg25
I0
sg26
I0
sg27
I0
sbag1
(g2
g3
Ntp2546
Rp2547
(dp2548
g7
I00
sg8
I0
sg9
I01
sg10
Nsg11
I01
sg12
I0
sg13
S'img/sand.png'
p2549
sg15
g2465
sg22
(I0
I0
tp2550
sg21
I0
sg17
g18
(I450
I100
I50
I50
tp2551
Rp2552
sg24
Nsg25
I0
sg26
I0
sg27
I0
sbag1
(g2
g3
Ntp2553
Rp2554
(dp2555
g7
I00
sg8
I0
sg9
I01
sg10
Nsg11
I01
sg12
I0
sg13
S'img/sand.png'
p2556
sg15
g2465
sg22
(I0
I0
tp2557
sg21
I0
sg17
g18
(I450
I150
I50
I50
tp2558
Rp2559
sg24
Nsg25
I0
sg26
I0
sg27
I0
sbag1
(g2
g3
Ntp2560
Rp2561
(dp2562
g7
I00
sg8
I0
sg9
I01
sg10
Nsg11
I01
sg12
I0
sg13
S'img/sand.png'
p2563
sg15
g2465
sg22
(I0
I0
tp2564
sg21
I0
sg17
g18
(I500
I150
I50
I50
tp2565
Rp2566
sg24
Nsg25
I0
sg26
I0
sg27
I0
sbag1
(g2
g3
Ntp2567
Rp2568
(dp2569
g7
I00
sg8
I0
sg9
I01
sg10
Nsg11
I01
sg12
I0
sg13
S'img/sand.png'
p2570
sg15
g2465
sg22
(I0
I0
tp2571
sg21
I0
sg17
g18
(I500
I200
I50
I50
tp2572
Rp2573
sg24
Nsg25
I0
sg26
I0
sg27
I0
sbag1
(g2
g3
Ntp2574
Rp2575
(dp2576
g7
I00
sg8
I0
sg9
I01
sg10
Nsg11
I01
sg12
I0
sg13
S'img/sand.png'
p2577
sg15
g2465
sg22
(I0
I0
tp2578
sg21
I0
sg17
g18
(I450
I200
I50
I50
tp2579
Rp2580
sg24
Nsg25
I0
sg26
I0
sg27
I0
sbag1
(g2
g3
Ntp2581
Rp2582
(dp2583
g7
I00
sg8
I0
sg9
I01
sg10
Nsg11
I01
sg12
I0
sg13
S'img/sand.png'
p2584
sg15
g2465
sg22
(I0
I0
tp2585
sg21
I0
sg17
g18
(I400
I200
I50
I50
tp2586
Rp2587
sg24
Nsg25
I0
sg26
I0
sg27
I0
sbag1
(g2
g3
Ntp2588
Rp2589
(dp2590
g7
I00
sg8
I0
sg9
I01
sg10
Nsg11
I01
sg12
I0
sg13
S'img/sand.png'
p2591
sg15
g2465
sg22
(I0
I0
tp2592
sg21
I0
sg17
g18
(I350
I200
I50
I50
tp2593
Rp2594
sg24
Nsg25
I0
sg26
I0
sg27
I0
sbag1
(g2
g3
Ntp2595
Rp2596
(dp2597
g7
I00
sg8
I0
sg9
I01
sg10
Nsg11
I01
sg12
I0
sg13
S'img/sand.png'
p2598
sg15
g2465
sg22
(I0
I0
tp2599
sg21
I0
sg17
g18
(I300
I150
I50
I50
tp2600
Rp2601
sg24
Nsg25
I0
sg26
I0
sg27
I0
sbag1
(g2
g3
Ntp2602
Rp2603
(dp2604
g7
I00
sg8
I0
sg9
I01
sg10
Nsg11
I01
sg12
I0
sg13
S'img/sand.png'
p2605
sg15
g2465
sg22
(I0
I0
tp2606
sg21
I0
sg17
g18
(I250
I150
I50
I50
tp2607
Rp2608
sg24
Nsg25
I0
sg26
I0
sg27
I0
sbag1
(g2
g3
Ntp2609
Rp2610
(dp2611
g7
I00
sg8
I0
sg9
I01
sg10
Nsg11
I01
sg12
I0
sg13
S'img/sand.png'
p2612
sg15
g2465
sg22
(I0
I0
tp2613
sg21
I0
sg17
g18
(I200
I150
I50
I50
tp2614
Rp2615
sg24
Nsg25
I0
sg26
I0
sg27
I0
sbag1
(g2
g3
Ntp2616
Rp2617
(dp2618
g7
I00
sg8
I0
sg9
I01
sg10
Nsg11
I01
sg12
I0
sg13
S'img/sand.png'
p2619
sg15
g2465
sg22
(I0
I0
tp2620
sg21
I0
sg17
g18
(I150
I100
I50
I50
tp2621
Rp2622
sg24
Nsg25
I0
sg26
I0
sg27
I0
sbag1
(g2
g3
Ntp2623
Rp2624
(dp2625
g7
I00
sg8
I0
sg9
I01
sg10
Nsg11
I01
sg12
I0
sg13
S'img/sand.png'
p2626
sg15
g2465
sg22
(I0
I0
tp2627
sg21
I0
sg17
g18
(I150
I50
I50
I50
tp2628
Rp2629
sg24
Nsg25
I0
sg26
I0
sg27
I0
sbag1
(g2
g3
Ntp2630
Rp2631
(dp2632
g7
I00
sg8
I0
sg9
I01
sg10
Nsg11
I01
sg12
I0
sg13
S'img/sand.png'
p2633
sg15
g2465
sg22
(I0
I0
tp2634
sg21
I0
sg17
g18
(I200
I50
I50
I50
tp2635
Rp2636
sg24
Nsg25
I0
sg26
I0
sg27
I0
sbag1
(g2
g3
Ntp2637
Rp2638
(dp2639
g7
I00
sg8
I0
sg9
I01
sg10
Nsg11
I01
sg12
I0
sg13
S'img/sand.png'
p2640
sg15
g2465
sg22
(I0
I0
tp2641
sg21
I0
sg17
g18
(I350
I50
I50
I50
tp2642
Rp2643
sg24
Nsg25
I0
sg26
I0
sg27
I0
sbag1
(g2
g3
Ntp2644
Rp2645
(dp2646
g7
I00
sg8
I0
sg9
I01
sg10
Nsg11
I01
sg12
I0
sg13
S'img/sand.png'
p2647
sg15
g2465
sg22
(I0
I0
tp2648
sg21
I0
sg17
g18
(I400
I50
I50
I50
tp2649
Rp2650
sg24
Nsg25
I0
sg26
I0
sg27
I0
sbag1
(g2
g3
Ntp2651
Rp2652
(dp2653
g7
I00
sg8
I0
sg9
I01
sg10
Nsg11
I01
sg12
I0
sg13
S'img/sand.png'
p2654
sg15
g2465
sg22
(I0
I0
tp2655
sg21
I0
sg17
g18
(I400
I100
I50
I50
tp2656
Rp2657
sg24
Nsg25
I0
sg26
I0
sg27
I0
sbag1
(g2
g3
Ntp2658
Rp2659
(dp2660
g7
I00
sg8
I0
sg9
I01
sg10
Nsg11
I01
sg12
I0
sg13
S'img/sand.png'
p2661
sg15
g2465
sg22
(I0
I0
tp2662
sg21
I0
sg17
g18
(I350
I100
I50
I50
tp2663
Rp2664
sg24
Nsg25
I0
sg26
I0
sg27
I0
sbag1
(g2
g3
Ntp2665
Rp2666
(dp2667
g7
I00
sg8
I0
sg9
I01
sg10
Nsg11
I01
sg12
I0
sg13
S'img/sand.png'
p2668
sg15
g2465
sg22
(I0
I0
tp2669
sg21
I0
sg17
g18
(I350
I150
I50
I50
tp2670
Rp2671
sg24
Nsg25
I0
sg26
I0
sg27
I0
sbag1
(g2
g3
Ntp2672
Rp2673
(dp2674
g7
I00
sg8
I0
sg9
I01
sg10
Nsg11
I01
sg12
I0
sg13
S'img/sand.png'
p2675
sg15
g2465
sg22
(I0
I0
tp2676
sg21
I0
sg17
g18
(I300
I200
I50
I50
tp2677
Rp2678
sg24
Nsg25
I0
sg26
I0
sg27
I0
sbag1
(g2
g3
Ntp2679
Rp2680
(dp2681
g7
I00
sg8
I0
sg9
I01
sg10
Nsg11
I01
sg12
I0
sg13
S'img/sand.png'
p2682
sg15
g2465
sg22
(I0
I0
tp2683
sg21
I0
sg17
g18
(I500
I250
I50
I50
tp2684
Rp2685
sg24
Nsg25
I0
sg26
I0
sg27
I0
sbag1
(g2
g3
Ntp2686
Rp2687
(dp2688
g7
I00
sg8
I0
sg9
I01
sg10
Nsg11
I01
sg12
I0
sg13
S'img/sand.png'
p2689
sg15
g2465
sg22
(I0
I0
tp2690
sg21
I0
sg17
g18
(I450
I350
I50
I50
tp2691
Rp2692
sg24
Nsg25
I0
sg26
I0
sg27
I0
sbag1
(g2
g3
Ntp2693
Rp2694
(dp2695
g7
I00
sg8
I0
sg9
I01
sg10
Nsg11
I01
sg12
I0
sg13
S'img/sand.png'
p2696
sg15
g2465
sg22
(I0
I0
tp2697
sg21
I0
sg17
g18
(I200
I300
I50
I50
tp2698
Rp2699
sg24
Nsg25
I0
sg26
I0
sg27
I0
sbag1
(g2
g3
Ntp2700
Rp2701
(dp2702
g7
I00
sg8
I0
sg9
I01
sg10
Nsg11
I01
sg12
I0
sg13
S'img/sand.png'
p2703
sg15
g2465
sg22
(I0
I0
tp2704
sg21
I0
sg17
g18
(I150
I300
I50
I50
tp2705
Rp2706
sg24
Nsg25
I0
sg26
I0
sg27
I0
sbag1
(g2
g3
Ntp2707
Rp2708
(dp2709
g7
I00
sg8
I0
sg9
I01
sg10
Nsg11
I01
sg12
I0
sg13
S'img/sand.png'
p2710
sg15
g2465
sg22
(I0
I0
tp2711
sg21
I0
sg17
g18
(I150
I250
I50
I50
tp2712
Rp2713
sg24
Nsg25
I0
sg26
I0
sg27
I0
sbag1
(g2
g3
Ntp2714
Rp2715
(dp2716
g7
I00
sg8
I0
sg9
I01
sg10
Nsg11
I01
sg12
I0
sg13
S'img/sand.png'
p2717
sg15
g2465
sg22
(I0
I0
tp2718
sg21
I0
sg17
g18
(I200
I250
I50
I50
tp2719
Rp2720
sg24
Nsg25
I0
sg26
I0
sg27
I0
sbag1
(g2
g3
Ntp2721
Rp2722
(dp2723
g7
I00
sg8
I0
sg9
I01
sg10
Nsg11
I01
sg12
I0
sg13
S'img/sand.png'
p2724
sg15
g2465
sg22
(I0
I0
tp2725
sg21
I0
sg17
g18
(I250
I250
I50
I50
tp2726
Rp2727
sg24
Nsg25
I0
sg26
I0
sg27
I0
sbag1
(g2
g3
Ntp2728
Rp2729
(dp2730
g7
I00
sg8
I0
sg9
I01
sg10
Nsg11
I01
sg12
I0
sg13
S'img/sand.png'
p2731
sg15
g2465
sg22
(I0
I0
tp2732
sg21
I0
sg17
g18
(I250
I300
I50
I50
tp2733
Rp2734
sg24
Nsg25
I0
sg26
I0
sg27
I0
sbag1
(g2
g3
Ntp2735
Rp2736
(dp2737
g7
I00
sg8
I0
sg9
I01
sg10
Nsg11
I01
sg12
I0
sg13
S'img/sand.png'
p2738
sg15
g2465
sg22
(I0
I0
tp2739
sg21
I0
sg17
g18
(I300
I300
I50
I50
tp2740
Rp2741
sg24
Nsg25
I0
sg26
I0
sg27
I0
sbag1
(g2
g3
Ntp2742
Rp2743
(dp2744
g7
I00
sg8
I0
sg9
I01
sg10
Nsg11
I01
sg12
I0
sg13
S'img/sand.png'
p2745
sg15
g2465
sg22
(I0
I0
tp2746
sg21
I0
sg17
g18
(I350
I300
I50
I50
tp2747
Rp2748
sg24
Nsg25
I0
sg26
I0
sg27
I0
sbag1
(g2
g3
Ntp2749
Rp2750
(dp2751
g7
I00
sg8
I0
sg9
I01
sg10
Nsg11
I01
sg12
I0
sg13
S'img/sand.png'
p2752
sg15
g2465
sg22
(I0
I0
tp2753
sg21
I0
sg17
g18
(I400
I300
I50
I50
tp2754
Rp2755
sg24
Nsg25
I0
sg26
I0
sg27
I0
sbag1
(g2
g3
Ntp2756
Rp2757
(dp2758
g7
I00
sg8
I0
sg9
I01
sg10
Nsg11
I01
sg12
I0
sg13
S'img/sand.png'
p2759
sg15
g2465
sg22
(I0
I0
tp2760
sg21
I0
sg17
g18
(I500
I300
I50
I50
tp2761
Rp2762
sg24
Nsg25
I0
sg26
I0
sg27
I0
sbag1
(g2
g3
Ntp2763
Rp2764
(dp2765
g7
I00
sg8
I0
sg9
I01
sg10
Nsg11
I01
sg12
I0
sg13
S'img/sand.png'
p2766
sg15
g2465
sg22
(I0
I0
tp2767
sg21
I0
sg17
g18
(I450
I300
I50
I50
tp2768
Rp2769
sg24
Nsg25
I0
sg26
I0
sg27
I0
sbag1
(g2
g3
Ntp2770
Rp2771
(dp2772
g7
I00
sg8
I0
sg9
I01
sg10
Nsg11
I01
sg12
I0
sg13
S'img/sand.png'
p2773
sg15
g2465
sg22
(I0
I0
tp2774
sg21
I0
sg17
g18
(I450
I250
I50
I50
tp2775
Rp2776
sg24
Nsg25
I0
sg26
I0
sg27
I0
sbag1
(g2
g3
Ntp2777
Rp2778
(dp2779
g7
I00
sg8
I0
sg9
I01
sg10
Nsg11
I01
sg12
I0
sg13
S'img/sand.png'
p2780
sg15
g2465
sg22
(I0
I0
tp2781
sg21
I0
sg17
g18
(I400
I250
I50
I50
tp2782
Rp2783
sg24
Nsg25
I0
sg26
I0
sg27
I0
sbag1
(g2
g3
Ntp2784
Rp2785
(dp2786
g7
I00
sg8
I0
sg9
I01
sg10
Nsg11
I01
sg12
I0
sg13
S'img/sand.png'
p2787
sg15
g2465
sg22
(I0
I0
tp2788
sg21
I0
sg17
g18
(I350
I250
I50
I50
tp2789
Rp2790
sg24
Nsg25
I0
sg26
I0
sg27
I0
sbag1
(g2
g3
Ntp2791
Rp2792
(dp2793
g7
I00
sg8
I0
sg9
I01
sg10
Nsg11
I01
sg12
I0
sg13
S'img/sand.png'
p2794
sg15
g2465
sg22
(I0
I0
tp2795
sg21
I0
sg17
g18
(I300
I250
I50
I50
tp2796
Rp2797
sg24
Nsg25
I0
sg26
I0
sg27
I0
sbag1
(g2
g3
Ntp2798
Rp2799
(dp2800
g7
I01
sg8
I0
sg9
I01
sg10
Nsg11
I01
sg12
I0
sg13
S'img/sand.png'
p2801
sg15
g2465
sg22
(I0
I0
tp2802
sg21
I0
sg17
g18
(I350
I0
I50
I50
tp2803
Rp2804
sg24
Nsg25
I1
sg26
I0
sg27
I0
sbag1
(g2
g3
Ntp2805
Rp2806
(dp2807
g7
I01
sg8
I0
sg9
I01
sg10
Nsg11
I01
sg12
I0
sg13
S'img/sand.png'
p2808
sg15
g2465
sg22
(I0
I0
tp2809
sg21
I0
sg17
g18
(I300
I0
I50
I50
tp2810
Rp2811
sg24
Nsg25
I1
sg26
I0
sg27
I0
sbag1
(g2
g3
Ntp2812
Rp2813
(dp2814
g7
I01
sg8
I0
sg9
I01
sg10
Nsg11
I01
sg12
I0
sg13
S'img/sand.png'
p2815
sg15
g2465
sg22
(I0
I0
tp2816
sg21
I0
sg17
g18
(I250
I0
I50
I50
tp2817
Rp2818
sg24
Nsg25
I1
sg26
I0
sg27
I0
sbag1
(g2
g3
Ntp2819
Rp2820
(dp2821
g7
I01
sg8
I0
sg9
I01
sg10
Nsg11
I01
sg12
I0
sg13
S'img/sand.png'
p2822
sg15
g2465
sg22
(I0
I0
tp2823
sg21
I0
sg17
g18
(I200
I0
I50
I50
tp2824
Rp2825
sg24
Nsg25
I1
sg26
I0
sg27
I0
sbag1
(g2
g3
Ntp2826
Rp2827
(dp2828
g7
I01
sg8
I0
sg9
I01
sg10
Nsg11
I01
sg12
I0
sg13
S'img/sand.png'
p2829
sg15
g2465
sg22
(I0
I0
tp2830
sg21
I0
sg17
g18
(I150
I0
I50
I50
tp2831
Rp2832
sg24
Nsg25
I1
sg26
I0
sg27
I0
sba.