(lp0
ccopy_reg
_reconstructor
p1
(cMap
Blocks
p2
c__builtin__
object
p3
Ntp4
Rp5
(dp6
S'is_wall'
p7
I01
sS'hx'
p8
I0
sS'missed'
p9
I01
sS'parent'
p10
NsS'onScreen'
p11
I01
sS'fx'
p12
I0
sS'img_file'
p13
S'img/wall.png'
p14
sS'pic'
p15
S'wall.png'
p16
sS'rect'
p17
cpygame
__rect_constructor
p18
(I0
I0
I50
I50
tp19
Rp20
sS'gx'
p21
I0
sS'location'
p22
(I0
I0
tp23
sS'image'
p24
NsS'ID'
p25
I1
sS'tile_y'
p26
I0
sS'tile_x'
p27
I0
sbag1
(g2
g3
Ntp28
Rp29
(dp30
g7
I01
sg8
I0
sg9
I01
sg10
Nsg11
I01
sg12
I0
sg13
S'img/wall.png'
p31
sg15
g16
sg17
g18
(I50
I0
I50
I50
tp32
Rp33
sg21
I0
sg22
(I1
I0
tp34
sg24
Nsg25
I1
sg26
I0
sg27
I1
sbag1
(g2
g3
Ntp35
Rp36
(dp37
g7
I01
sg8
I0
sg9
I01
sg10
Nsg11
I01
sg12
I0
sg13
S'img/wall.png'
p38
sg15
g16
sg17
g18
(I100
I0
I50
I50
tp39
Rp40
sg21
I0
sg22
(I2
I0
tp41
sg24
Nsg25
I1
sg26
I0
sg27
I2
sbag1
(g2
g3
Ntp42
Rp43
(dp44
g7
I01
sg8
I0
sg9
I01
sg10
Nsg11
I01
sg12
I0
sg13
S'img/wall.png'
p45
sg15
g16
sg17
g18
(I450
I0
I50
I50
tp46
Rp47
sg21
I0
sg22
(I9
I0
tp48
sg24
Nsg25
I1
sg26
I0
sg27
I9
sbag1
(g2
g3
Ntp49
Rp50
(dp51
g7
I01
sg8
I0
sg9
I01
sg10
Nsg11
I01
sg12
I0
sg13
S'img/wall.png'
p52
sg15
g16
sg17
g18
(I500
I0
I50
I50
tp53
Rp54
sg21
I0
sg22
(I10
I0
tp55
sg24
Nsg25
I1
sg26
I0
sg27
I10
sbag1
(g2
g3
Ntp56
Rp57
(dp58
g7
I01
sg8
I0
sg9
I01
sg10
Nsg11
I01
sg12
I0
sg13
S'img/wall.png'
p59
sg15
g16
sg17
g18
(I550
I0
I50
I50
tp60
Rp61
sg21
I0
sg22
(I11
I0
tp62
sg24
Nsg25
I1
sg26
I0
sg27
I11
sbag1
(g2
g3
Ntp63
Rp64
(dp65
g7
I01
sg8
I0
sg9
I01
sg10
Nsg11
I01
sg12
I0
sg13
S'img/wall.png'
p66
sg15
g16
sg17
g18
(I600
I0
I50
I50
tp67
Rp68
sg21
I0
sg22
(I12
I0
tp69
sg24
Nsg25
I1
sg26
I0
sg27
I12
sbag1
(g2
g3
Ntp70
Rp71
(dp72
g7
I01
sg8
I0
sg9
I01
sg10
Nsg11
I01
sg12
I0
sg13
S'img/wall.png'
p73
sg15
g16
sg17
g18
(I650
I0
I50
I50
tp74
Rp75
sg21
I0
sg22
(I13
I0
tp76
sg24
Nsg25
I1
sg26
I0
sg27
I13
sbag1
(g2
g3
Ntp77
Rp78
(dp79
g7
I01
sg8
I0
sg9
I01
sg10
Nsg11
I01
sg12
I0
sg13
S'img/wall.png'
p80
sg15
g16
sg17
g18
(I850
I0
I50
I50
tp81
Rp82
sg21
I0
sg22
(I17
I0
tp83
sg24
Nsg25
I1
sg26
I0
sg27
I17
sbag1
(g2
g3
Ntp84
Rp85
(dp86
g7
I01
sg8
I0
sg9
I01
sg10
Nsg11
I01
sg12
I0
sg13
S'img/wall.png'
p87
sg15
g16
sg17
g18
(I900
I0
I50
I50
tp88
Rp89
sg21
I0
sg22
(I18
I0
tp90
sg24
Nsg25
I1
sg26
I0
sg27
I18
sbag1
(g2
g3
Ntp91
Rp92
(dp93
g7
I01
sg8
I0
sg9
I01
sg10
Nsg11
I01
sg12
I0
sg13
S'img/wall.png'
p94
sg15
g16
sg17
g18
(I950
I0
I50
I50
tp95
Rp96
sg21
I0
sg22
(I19
I0
tp97
sg24
Nsg25
I1
sg26
I0
sg27
I19
sbag1
(g2
g3
Ntp98
Rp99
(dp100
g7
I01
sg8
I0
sg9
I01
sg10
Nsg11
I01
sg12
I0
sg13
S'img/wall.png'
p101
sg15
g16
sg17
g18
(I1000
I0
I50
I50
tp102
Rp103
sg21
I0
sg22
(I20
I0
tp104
sg24
Nsg25
I1
sg26
I0
sg27
I20
sbag1
(g2
g3
Ntp105
Rp106
(dp107
g7
I01
sg8
I0
sg9
I01
sg10
Nsg11
I01
sg12
I0
sg13
S'img/wall.png'
p108
sg15
g16
sg17
g18
(I1050
I0
I50
I50
tp109
Rp110
sg21
I0
sg22
(I21
I0
tp111
sg24
Nsg25
I1
sg26
I0
sg27
I21
sbag1
(g2
g3
Ntp112
Rp113
(dp114
g7
I01
sg8
I0
sg9
I01
sg10
Nsg11
I01
sg12
I0
sg13
S'img/wall.png'
p115
sg15
g16
sg17
g18
(I1100
I0
I50
I50
tp116
Rp117
sg21
I0
sg22
(I22
I0
tp118
sg24
Nsg25
I1
sg26
I0
sg27
I22
sbag1
(g2
g3
Ntp119
Rp120
(dp121
g7
I01
sg8
I0
sg9
I01
sg10
Nsg11
I01
sg12
I0
sg13
S'img/wall.png'
p122
sg15
g16
sg17
g18
(I1150
I0
I50
I50
tp123
Rp124
sg21
I0
sg22
(I23
I0
tp125
sg24
Nsg25
I1
sg26
I0
sg27
I23
sbag1
(g2
g3
Ntp126
Rp127
(dp128
g7
I01
sg8
I0
sg9
I01
sg10
Nsg11
I00
sg12
I0
sg13
S'img/wall.png'
p129
sg15
g16
sg17
g18
(I1200
I0
I50
I50
tp130
Rp131
sg21
I0
sg22
(I24
I0
tp132
sg24
Nsg25
I1
sg26
I0
sg27
I24
sbag1
(g2
g3
Ntp133
Rp134
(dp135
g7
I01
sg8
I0
sg9
I01
sg10
Nsg11
I01
sg12
I0
sg13
S'img/wall.png'
p136
sg15
g16
sg17
g18
(I0
I50
I50
I50
tp137
Rp138
sg21
I0
sg22
(I0
I1
tp139
sg24
Nsg25
I1
sg26
I1
sg27
I0
sbag1
(g2
g3
Ntp140
Rp141
(dp142
g7
I00
sg8
I0
sg9
I01
sg10
Nsg11
I01
sg12
I0
sg13
S'img/sand.png'
p143
sg15
S'sand.png'
p144
sg17
g18
(I550
I50
I50
I50
tp145
Rp146
sg21
I0
sg22
(I11
I1
tp147
sg24
Nsg25
I0
sg26
I1
sg27
I11
sbag1
(g2
g3
Ntp148
Rp149
(dp150
g7
I00
sg8
I0
sg9
I01
sg10
Nsg11
I01
sg12
I0
sg13
S'img/sand.png'
p151
sg15
g144
sg17
g18
(I600
I50
I50
I50
tp152
Rp153
sg21
I0
sg22
(I12
I1
tp154
sg24
Nsg25
I0
sg26
I1
sg27
I12
sbag1
(g2
g3
Ntp155
Rp156
(dp157
g7
I00
sg8
I0
sg9
I01
sg10
Nsg11
I01
sg12
I0
sg13
S'img/sand.png'
p158
sg15
g144
sg17
g18
(I650
I50
I50
I50
tp159
Rp160
sg21
I0
sg22
(I13
I1
tp161
sg24
Nsg25
I0
sg26
I1
sg27
I13
sbag1
(g2
g3
Ntp162
Rp163
(dp164
g7
I00
sg8
I0
sg9
I01
sg10
Nsg11
I01
sg12
I0
sg13
S'img/sand.png'
p165
sg15
g144
sg17
g18
(I700
I50
I50
I50
tp166
Rp167
sg21
I0
sg22
(I14
I1
tp168
sg24
Nsg25
I0
sg26
I1
sg27
I14
sbag1
(g2
g3
Ntp169
Rp170
(dp171
g7
I00
sg8
I0
sg9
I01
sg10
Nsg11
I01
sg12
I0
sg13
S'img/sand.png'
p172
sg15
g144
sg17
g18
(I750
I50
I50
I50
tp173
Rp174
sg21
I0
sg22
(I15
I1
tp175
sg24
Nsg25
I0
sg26
I1
sg27
I15
sbag1
(g2
g3
Ntp176
Rp177
(dp178
g7
I00
sg8
I0
sg9
I01
sg10
Nsg11
I01
sg12
I0
sg13
S'img/sand.png'
p179
sg15
g144
sg17
g18
(I850
I50
I50
I50
tp180
Rp181
sg21
I0
sg22
(I17
I1
tp182
sg24
Nsg25
I0
sg26
I1
sg27
I17
sbag1
(g2
g3
Ntp183
Rp184
(dp185
g7
I00
sg8
I0
sg9
I01
sg10
Nsg11
I01
sg12
I0
sg13
S'img/sand.png'
p186
sg15
g144
sg17
g18
(I900
I50
I50
I50
tp187
Rp188
sg21
I0
sg22
(I18
I1
tp189
sg24
Nsg25
I0
sg26
I1
sg27
I18
sbag1
(g2
g3
Ntp190
Rp191
(dp192
g7
I00
sg8
I0
sg9
I01
sg10
Nsg11
I01
sg12
I0
sg13
S'img/sand.png'
p193
sg15
g144
sg17
g18
(I950
I50
I50
I50
tp194
Rp195
sg21
I0
sg22
(I19
I1
tp196
sg24
Nsg25
I0
sg26
I1
sg27
I19
sbag1
(g2
g3
Ntp197
Rp198
(dp199
g7
I00
sg8
I0
sg9
I01
sg10
Nsg11
I01
sg12
I0
sg13
S'img/sand.png'
p200
sg15
g144
sg17
g18
(I1000
I50
I50
I50
tp201
Rp202
sg21
I0
sg22
(I20
I1
tp203
sg24
Nsg25
I0
sg26
I1
sg27
I20
sbag1
(g2
g3
Ntp204
Rp205
(dp206
g7
I00
sg8
I0
sg9
I01
sg10
Nsg11
I01
sg12
I0
sg13
S'img/sand.png'
p207
sg15
g144
sg17
g18
(I1050
I50
I50
I50
tp208
Rp209
sg21
I0
sg22
(I21
I1
tp210
sg24
Nsg25
I0
sg26
I1
sg27
I21
sbag1
(g2
g3
Ntp211
Rp212
(dp213
g7
I01
sg8
I0
sg9
I01
sg10
Nsg11
I01
sg12
I0
sg13
S'img/wall.png'
p214
sg15
g16
sg17
g18
(I0
I100
I50
I50
tp215
Rp216
sg21
I0
sg22
(I0
I2
tp217
sg24
Nsg25
I1
sg26
I2
sg27
I0
sbag1
(g2
g3
Ntp218
Rp219
(dp220
g7
I00
sg8
I0
sg9
I01
sg10
Nsg11
I01
sg12
I0
sg13
S'img/sand.png'
p221
sg15
g144
sg17
g18
(I600
I100
I50
I50
tp222
Rp223
sg21
I0
sg22
(I12
I2
tp224
sg24
Nsg25
I0
sg26
I2
sg27
I12
sbag1
(g2
g3
Ntp225
Rp226
(dp227
g7
I00
sg8
I0
sg9
I01
sg10
Nsg11
I01
sg12
I0
sg13
S'img/sand.png'
p228
sg15
g144
sg17
g18
(I850
I100
I50
I50
tp229
Rp230
sg21
I0
sg22
(I17
I2
tp231
sg24
Nsg25
I0
sg26
I2
sg27
I17
sbag1
(g2
g3
Ntp232
Rp233
(dp234
g7
I00
sg8
I0
sg9
I01
sg10
Nsg11
I01
sg12
I0
sg13
S'img/sand.png'
p235
sg15
g144
sg17
g18
(I900
I100
I50
I50
tp236
Rp237
sg21
I0
sg22
(I18
I2
tp238
sg24
Nsg25
I0
sg26
I2
sg27
I18
sbag1
(g2
g3
Ntp239
Rp240
(dp241
g7
I01
sg8
I0
sg9
I01
sg10
Nsg11
I01
sg12
I0
sg13
S'img/wall.png'
p242
sg15
g16
sg17
g18
(I950
I100
I50
I50
tp243
Rp244
sg21
I0
sg22
(I19
I2
tp245
sg24
Nsg25
I1
sg26
I2
sg27
I19
sbag1
(g2
g3
Ntp246
Rp247
(dp248
g7
I00
sg8
I0
sg9
I01
sg10
Nsg11
I01
sg12
I0
sg13
S'img/sand.png'
p249
sg15
g144
sg17
g18
(I1150
I100
I50
I50
tp250
Rp251
sg21
I0
sg22
(I23
I2
tp252
sg24
Nsg25
I0
sg26
I2
sg27
I23
sbag1
(g2
g3
Ntp253
Rp254
(dp255
g7
I01
sg8
I0
sg9
I01
sg10
Nsg11
I00
sg12
I0
sg13
S'img/wall.png'
p256
sg15
g16
sg17
g18
(I1200
I100
I50
I50
tp257
Rp258
sg21
I0
sg22
(I24
I2
tp259
sg24
Nsg25
I1
sg26
I2
sg27
I24
sbag1
(g2
g3
Ntp260
Rp261
(dp262
g7
I00
sg8
I0
sg9
I01
sg10
Nsg11
I01
sg12
I0
sg13
S'img/sand.png'
p263
sg15
g144
sg17
g18
(I100
I150
I50
I50
tp264
Rp265
sg21
I0
sg22
(I2
I3
tp266
sg24
Nsg25
I0
sg26
I3
sg27
I2
sbag1
(g2
g3
Ntp267
Rp268
(dp269
g7
I00
sg8
I0
sg9
I01
sg10
Nsg11
I01
sg12
I0
sg13
S'img/sand.png'
p270
sg15
g144
sg17
g18
(I800
I150
I50
I50
tp271
Rp272
sg21
I0
sg22
(I16
I3
tp273
sg24
Nsg25
I0
sg26
I3
sg27
I16
sbag1
(g2
g3
Ntp274
Rp275
(dp276
g7
I00
sg8
I0
sg9
I01
sg10
Nsg11
I01
sg12
I0
sg13
S'img/sand.png'
p277
sg15
g144
sg17
g18
(I850
I150
I50
I50
tp278
Rp279
sg21
I0
sg22
(I17
I3
tp280
sg24
Nsg25
I0
sg26
I3
sg27
I17
sbag1
(g2
g3
Ntp281
Rp282
(dp283
g7
I00
sg8
I0
sg9
I01
sg10
Nsg11
I01
sg12
I0
sg13
S'img/sand.png'
p284
sg15
g144
sg17
g18
(I900
I150
I50
I50
tp285
Rp286
sg21
I0
sg22
(I18
I3
tp287
sg24
Nsg25
I0
sg26
I3
sg27
I18
sbag1
(g2
g3
Ntp288
Rp289
(dp290
g7
I00
sg8
I0
sg9
I01
sg10
Nsg11
I01
sg12
I0
sg13
S'img/sand.png'
p291
sg15
g144
sg17
g18
(I1150
I150
I50
I50
tp292
Rp293
sg21
I0
sg22
(I23
I3
tp294
sg24
Nsg25
I0
sg26
I3
sg27
I23
sbag1
(g2
g3
Ntp295
Rp296
(dp297
g7
I01
sg8
I0
sg9
I01
sg10
Nsg11
I00
sg12
I0
sg13
S'img/wall.png'
p298
sg15
g16
sg17
g18
(I1200
I150
I50
I50
tp299
Rp300
sg21
I0
sg22
(I24
I3
tp301
sg24
Nsg25
I1
sg26
I3
sg27
I24
sbag1
(g2
g3
Ntp302
Rp303
(dp304
g7
I00
sg8
I0
sg9
I01
sg10
Nsg11
I01
sg12
I0
sg13
S'img/sand.png'
p305
sg15
g144
sg17
g18
(I50
I200
I50
I50
tp306
Rp307
sg21
I0
sg22
(I1
I4
tp308
sg24
Nsg25
I0
sg26
I4
sg27
I1
sbag1
(g2
g3
Ntp309
Rp310
(dp311
g7
I00
sg8
I0
sg9
I01
sg10
Nsg11
I01
sg12
I0
sg13
S'img/sand.png'
p312
sg15
g144
sg17
g18
(I800
I200
I50
I50
tp313
Rp314
sg21
I0
sg22
(I16
I4
tp315
sg24
Nsg25
I0
sg26
I4
sg27
I16
sbag1
(g2
g3
Ntp316
Rp317
(dp318
g7
I00
sg8
I0
sg9
I01
sg10
Nsg11
I01
sg12
I0
sg13
S'img/sand.png'
p319
sg15
g144
sg17
g18
(I850
I200
I50
I50
tp320
Rp321
sg21
I0
sg22
(I17
I4
tp322
sg24
Nsg25
I0
sg26
I4
sg27
I17
sbag1
(g2
g3
Ntp323
Rp324
(dp325
g7
I00
sg8
I0
sg9
I01
sg10
Nsg11
I01
sg12
I0
sg13
S'img/sand.png'
p326
sg15
g144
sg17
g18
(I900
I200
I50
I50
tp327
Rp328
sg21
I0
sg22
(I18
I4
tp329
sg24
Nsg25
I0
sg26
I4
sg27
I18
sbag1
(g2
g3
Ntp330
Rp331
(dp332
g7
I01
sg8
I0
sg9
I01
sg10
Nsg11
I01
sg12
I0
sg13
S'img/wall.png'
p333
sg15
g16
sg17
g18
(I1150
I350
I50
I50
tp334
Rp335
sg21
I0
sg22
(I23
I7
tp336
sg24
Nsg25
I1
sg26
I7
sg27
I23
sbag1
(g2
g3
Ntp337
Rp338
(dp339
g7
I00
sg8
I0
sg9
I01
sg10
Nsg11
I01
sg12
I0
sg13
S'img/sand.png'
p340
sg15
g144
sg17
g18
(I1150
I450
I50
I50
tp341
Rp342
sg21
I0
sg22
(I23
I9
tp343
sg24
Nsg25
I0
sg26
I9
sg27
I23
sbag1
(g2
g3
Ntp344
Rp345
(dp346
g7
I01
sg8
I0
sg9
I01
sg10
Nsg11
I01
sg12
I0
sg13
S'img/wall.png'
p347
sg15
g16
sg17
g18
(I0
I650
I50
I50
tp348
Rp349
sg21
I0
sg22
(I0
I13
tp350
sg24
Nsg25
I1
sg26
I13
sg27
I0
sbag1
(g2
g3
Ntp351
Rp352
(dp353
g7
I01
sg8
I0
sg9
I01
sg10
Nsg11
I00
sg12
I0
sg13
S'img/wall.png'
p354
sg15
g16
sg17
g18
(I0
I750
I50
I50
tp355
Rp356
sg21
I0
sg22
(I0
I15
tp357
sg24
Nsg25
I1
sg26
I15
sg27
I0
sbag1
(g2
g3
Ntp358
Rp359
(dp360
g7
I01
sg8
I0
sg9
I01
sg10
Nsg11
I00
sg12
I0
sg13
S'img/wall.png'
p361
sg15
g16
sg17
g18
(I50
I750
I50
I50
tp362
Rp363
sg21
I0
sg22
(I1
I15
tp364
sg24
Nsg25
I1
sg26
I15
sg27
I1
sbag1
(g2
g3
Ntp365
Rp366
(dp367
g7
I01
sg8
I0
sg9
I01
sg10
Nsg11
I00
sg12
I0
sg13
S'img/wall.png'
p368
sg15
g16
sg17
g18
(I100
I750
I50
I50
tp369
Rp370
sg21
I0
sg22
(I2
I15
tp371
sg24
Nsg25
I1
sg26
I15
sg27
I2
sbag1
(g2
g3
Ntp372
Rp373
(dp374
g7
I01
sg8
I0
sg9
I01
sg10
Nsg11
I00
sg12
I0
sg13
S'img/wall.png'
p375
sg15
g16
sg17
g18
(I150
I750
I50
I50
tp376
Rp377
sg21
I0
sg22
(I3
I15
tp378
sg24
Nsg25
I1
sg26
I15
sg27
I3
sbag1
(g2
g3
Ntp379
Rp380
(dp381
g7
I01
sg8
I0
sg9
I01
sg10
Nsg11
I00
sg12
I0
sg13
S'img/wall.png'
p382
sg15
g16
sg17
g18
(I200
I750
I50
I50
tp383
Rp384
sg21
I0
sg22
(I4
I15
tp385
sg24
Nsg25
I1
sg26
I15
sg27
I4
sbag1
(g2
g3
Ntp386
Rp387
(dp388
g7
I01
sg8
I0
sg9
I01
sg10
Nsg11
I00
sg12
I0
sg13
S'img/wall.png'
p389
sg15
g16
sg17
g18
(I250
I750
I50
I50
tp390
Rp391
sg21
I0
sg22
(I5
I15
tp392
sg24
Nsg25
I1
sg26
I15
sg27
I5
sbag1
(g2
g3
Ntp393
Rp394
(dp395
g7
I01
sg8
I0
sg9
I01
sg10
Nsg11
I00
sg12
I0
sg13
S'img/wall.png'
p396
sg15
g16
sg17
g18
(I300
I750
I50
I50
tp397
Rp398
sg21
I0
sg22
(I6
I15
tp399
sg24
Nsg25
I1
sg26
I15
sg27
I6
sbag1
(g2
g3
Ntp400
Rp401
(dp402
g7
I01
sg8
I0
sg9
I01
sg10
Nsg11
I00
sg12
I0
sg13
S'img/wall.png'
p403
sg15
g16
sg17
g18
(I350
I750
I50
I50
tp404
Rp405
sg21
I0
sg22
(I7
I15
tp406
sg24
Nsg25
I1
sg26
I15
sg27
I7
sbag1
(g2
g3
Ntp407
Rp408
(dp409
g7
I01
sg8
I0
sg9
I01
sg10
Nsg11
I00
sg12
I0
sg13
S'img/wall.png'
p410
sg15
g16
sg17
g18
(I400
I750
I50
I50
tp411
Rp412
sg21
I0
sg22
(I8
I15
tp413
sg24
Nsg25
I1
sg26
I15
sg27
I8
sbag1
(g2
g3
Ntp414
Rp415
(dp416
g7
I01
sg8
I0
sg9
I01
sg10
Nsg11
I00
sg12
I0
sg13
S'img/wall.png'
p417
sg15
g16
sg17
g18
(I450
I750
I50
I50
tp418
Rp419
sg21
I0
sg22
(I9
I15
tp420
sg24
Nsg25
I1
sg26
I15
sg27
I9
sbag1
(g2
g3
Ntp421
Rp422
(dp423
g7
I01
sg8
I0
sg9
I01
sg10
Nsg11
I00
sg12
I0
sg13
S'img/wall.png'
p424
sg15
g16
sg17
g18
(I500
I750
I50
I50
tp425
Rp426
sg21
I0
sg22
(I10
I15
tp427
sg24
Nsg25
I1
sg26
I15
sg27
I10
sbag1
(g2
g3
Ntp428
Rp429
(dp430
g7
I01
sg8
I0
sg9
I01
sg10
Nsg11
I00
sg12
I0
sg13
S'img/wall.png'
p431
sg15
g16
sg17
g18
(I550
I750
I50
I50
tp432
Rp433
sg21
I0
sg22
(I11
I15
tp434
sg24
Nsg25
I1
sg26
I15
sg27
I11
sbag1
(g2
g3
Ntp435
Rp436
(dp437
g7
I01
sg8
I0
sg9
I01
sg10
Nsg11
I00
sg12
I0
sg13
S'img/wall.png'
p438
sg15
g16
sg17
g18
(I650
I750
I50
I50
tp439
Rp440
sg21
I0
sg22
(I13
I15
tp441
sg24
Nsg25
I1
sg26
I15
sg27
I13
sbag1
(g2
g3
Ntp442
Rp443
(dp444
g7
I01
sg8
I0
sg9
I01
sg10
Nsg11
I00
sg12
I0
sg13
S'img/wall.png'
p445
sg15
g16
sg17
g18
(I700
I750
I50
I50
tp446
Rp447
sg21
I0
sg22
(I14
I15
tp448
sg24
Nsg25
I1
sg26
I15
sg27
I14
sbag1
(g2
g3
Ntp449
Rp450
(dp451
g7
I01
sg8
I0
sg9
I01
sg10
Nsg11
I00
sg12
I0
sg13
S'img/wall.png'
p452
sg15
g16
sg17
g18
(I750
I750
I50
I50
tp453
Rp454
sg21
I0
sg22
(I15
I15
tp455
sg24
Nsg25
I1
sg26
I15
sg27
I15
sbag1
(g2
g3
Ntp456
Rp457
(dp458
g7
I01
sg8
I0
sg9
I01
sg10
Nsg11
I00
sg12
I0
sg13
S'img/wall.png'
p459
sg15
g16
sg17
g18
(I550
I800
I50
I50
tp460
Rp461
sg21
I0
sg22
(I11
I16
tp462
sg24
Nsg25
I1
sg26
I16
sg27
I11
sbag1
(g2
g3
Ntp463
Rp464
(dp465
g7
I01
sg8
I0
sg9
I01
sg10
Nsg11
I00
sg12
I0
sg13
S'img/wall.png'
p466
sg15
g16
sg17
g18
(I600
I800
I50
I50
tp467
Rp468
sg21
I0
sg22
(I12
I16
tp469
sg24
Nsg25
I1
sg26
I16
sg27
I12
sbag1
(g2
g3
Ntp470
Rp471
(dp472
g7
I01
sg8
I0
sg9
I01
sg10
Nsg11
I00
sg12
I0
sg13
S'img/wall.png'
p473
sg15
g16
sg17
g18
(I650
I800
I50
I50
tp474
Rp475
sg21
I0
sg22
(I13
I16
tp476
sg24
Nsg25
I1
sg26
I16
sg27
I13
sbag1
(g2
g3
Ntp477
Rp478
(dp479
g7
I00
sg8
I0
sg9
I01
sg10
Nsg11
I01
sg12
I0
sg13
S'img/sand.png'
p480
sg15
S'sand.png'
p481
sg17
g18
(I250
I50
I50
I50
tp482
Rp483
sg21
I0
sg22
(I0
I0
tp484
sg24
Nsg25
I0
sg26
I0
sg27
I0
sbag1
(g2
g3
Ntp485
Rp486
(dp487
g7
I00
sg8
I0
sg9
I01
sg10
Nsg11
I01
sg12
I0
sg13
S'img/sand.png'
p488
sg15
g481
sg17
g18
(I300
I50
I50
I50
tp489
Rp490
sg21
I0
sg22
(I0
I0
tp491
sg24
Nsg25
I0
sg26
I0
sg27
I0
sbag1
(g2
g3
Ntp492
Rp493
(dp494
g7
I00
sg8
I0
sg9
I01
sg10
Nsg11
I01
sg12
I0
sg13
S'img/sand.png'
p495
sg15
g481
sg17
g18
(I150
I50
I50
I50
tp496
Rp497
sg21
I0
sg22
(I0
I0
tp498
sg24
Nsg25
I0
sg26
I0
sg27
I0
sbag1
(g2
g3
Ntp499
Rp500
(dp501
g7
I00
sg8
I0
sg9
I01
sg10
Nsg11
I01
sg12
I0
sg13
S'img/sand.png'
p502
sg15
g481
sg17
g18
(I200
I50
I50
I50
tp503
Rp504
sg21
I0
sg22
(I0
I0
tp505
sg24
Nsg25
I0
sg26
I0
sg27
I0
sbag1
(g2
g3
Ntp506
Rp507
(dp508
g7
I00
sg8
I0
sg9
I01
sg10
Nsg11
I01
sg12
I0
sg13
S'img/sand.png'
p509
sg15
g481
sg17
g18
(I350
I50
I50
I50
tp510
Rp511
sg21
I0
sg22
(I0
I0
tp512
sg24
Nsg25
I0
sg26
I0
sg27
I0
sbag1
(g2
g3
Ntp513
Rp514
(dp515
g7
I00
sg8
I0
sg9
I01
sg10
Nsg11
I01
sg12
I0
sg13
S'img/sand.png'
p516
sg15
g481
sg17
g18
(I400
I50
I50
I50
tp517
Rp518
sg21
I0
sg22
(I0
I0
tp519
sg24
Nsg25
I0
sg26
I0
sg27
I0
sbag1
(g2
g3
Ntp520
Rp521
(dp522
g7
I00
sg8
I0
sg10
Nsg11
I01
sg12
I0
sg13
S'img/sand.png'
p523
sg15
S'sand.png'
p524
sg17
g18
(I650
I150
I50
I50
tp525
Rp526
sg21
I0
sg22
(I0
I0
tp527
sg24
Nsg25
I0
sg26
I0
sg27
I0
sbag1
(g2
g3
Ntp528
Rp529
(dp530
g7
I00
sg8
I0
sg10
Nsg11
I01
sg12
I0
sg13
S'img/sand.png'
p531
sg15
g524
sg17
g18
(I650
I100
I50
I50
tp532
Rp533
sg21
I0
sg22
(I0
I0
tp534
sg24
Nsg25
I0
sg26
I0
sg27
I0
sbag1
(g2
g3
Ntp535
Rp536
(dp537
g7
I00
sg8
I0
sg10
Nsg11
I01
sg12
I0
sg13
S'img/sand.png'
p538
sg15
g524
sg17
g18
(I650
I100
I50
I50
tp539
Rp540
sg21
I0
sg22
(I0
I0
tp541
sg24
Nsg25
I0
sg26
I0
sg27
I0
sbag536
ag1
(g2
g3
Ntp542
Rp543
(dp544
g7
I00
sg8
I0
sg10
Nsg11
I01
sg12
I0
sg13
S'img/sand.png'
p545
sg15
g524
sg17
g18
(I650
I100
I50
I50
tp546
Rp547
sg21
I0
sg22
(I0
I0
tp548
sg24
Nsg25
I0
sg26
I0
sg27
I0
sbag543
ag543
ag543
ag543
ag1
(g2
g3
Ntp549
Rp550
(dp551
g7
I00
sg8
I0
sg10
Nsg11
I01
sg12
I0
sg13
S'img/sand.png'
p552
sg15
S'sand.png'
p553
sg17
g18
(I900
I600
I50
I50
tp554
Rp555
sg21
I0
sg22
(I0
I0
tp556
sg24
Nsg25
I0
sg26
I0
sg27
I0
sbag1
(g2
g3
Ntp557
Rp558
(dp559
g7
I00
sg8
I0
sg10
Nsg11
I01
sg12
I0
sg13
S'img/sand.png'
p560
sg15
g553
sg17
g18
(I850
I450
I50
I50
tp561
Rp562
sg21
I0
sg22
(I0
I0
tp563
sg24
Nsg25
I0
sg26
I0
sg27
I0
sbag1
(g2
g3
Ntp564
Rp565
(dp566
g7
I00
sg8
I0
sg10
Nsg11
I01
sg12
I0
sg13
S'img/sand.png'
p567
sg15
g553
sg17
g18
(I950
I250
I50
I50
tp568
Rp569
sg21
I0
sg22
(I0
I0
tp570
sg24
Nsg25
I0
sg26
I0
sg27
I0
sbag1
(g2
g3
Ntp571
Rp572
(dp573
g7
I00
sg8
I0
sg10
Nsg11
I01
sg12
I0
sg13
S'img/sand.png'
p574
sg15
g553
sg17
g18
(I950
I250
I50
I50
tp575
Rp576
sg21
I0
sg22
(I0
I0
tp577
sg24
Nsg25
I0
sg26
I0
sg27
I0
sbag572
ag572
ag1
(g2
g3
Ntp578
Rp579
(dp580
g7
I00
sg8
I0
sg10
Nsg11
I01
sg12
I0
sg13
S'img/sand.png'
p581
sg15
g553
sg17
g18
(I950
I200
I50
I50
tp582
Rp583
sg21
I0
sg22
(I0
I0
tp584
sg24
Nsg25
I0
sg26
I0
sg27
I0
sbag1
(g2
g3
Ntp585
Rp586
(dp587
g7
I00
sg8
I0
sg10
Nsg11
I01
sg12
I0
sg13
S'img/sand.png'
p588
sg15
g553
sg17
g18
(I1050
I100
I50
I50
tp589
Rp590
sg21
I0
sg22
(I0
I0
tp591
sg24
Nsg25
I0
sg26
I0
sg27
I0
sbag586
ag1
(g2
g3
Ntp592
Rp593
(dp594
g7
I00
sg8
I0
sg10
Nsg11
I01
sg12
I0
sg13
S'img/sand.png'
p595
sg15
g553
sg17
g18
(I1100
I100
I50
I50
tp596
Rp597
sg21
I0
sg22
(I0
I0
tp598
sg24
Nsg25
I0
sg26
I0
sg27
I0
sbag1
(g2
g3
Ntp599
Rp600
(dp601
g7
I00
sg8
I0
sg10
Nsg11
I01
sg12
I0
sg13
S'img/sand.png'
p602
sg15
g553
sg17
g18
(I1100
I100
I50
I50
tp603
Rp604
sg21
I0
sg22
(I0
I0
tp605
sg24
Nsg25
I0
sg26
I0
sg27
I0
sbag600
ag1
(g2
g3
Ntp606
Rp607
(dp608
g7
I00
sg8
I0
sg10
Nsg11
I01
sg12
I0
sg13
S'img/sand.png'
p609
sg15
g553
sg17
g18
(I1100
I150
I50
I50
tp610
Rp611
sg21
I0
sg22
(I0
I0
tp612
sg24
Nsg25
I0
sg26
I0
sg27
I0
sbag1
(g2
g3
Ntp613
Rp614
(dp615
g7
I00
sg8
I0
sg10
Nsg11
I01
sg12
I0
sg13
S'img/sand.png'
p616
sg15
g553
sg17
g18
(I1100
I200
I50
I50
tp617
Rp618
sg21
I0
sg22
(I0
I0
tp619
sg24
Nsg25
I0
sg26
I0
sg27
I0
sbag1
(g2
g3
Ntp620
Rp621
(dp622
g7
I00
sg8
I0
sg10
Nsg11
I01
sg12
I0
sg13
S'img/sand.png'
p623
sg15
g553
sg17
g18
(I1050
I200
I50
I50
tp624
Rp625
sg21
I0
sg22
(I0
I0
tp626
sg24
Nsg25
I0
sg26
I0
sg27
I0
sbag621
ag1
(g2
g3
Ntp627
Rp628
(dp629
g7
I00
sg8
I0
sg10
Nsg11
I01
sg12
I0
sg13
S'img/sand.png'
p630
sg15
g553
sg17
g18
(I1050
I200
I50
I50
tp631
Rp632
sg21
I0
sg22
(I0
I0
tp633
sg24
Nsg25
I0
sg26
I0
sg27
I0
sbag628
ag628
ag1
(g2
g3
Ntp634
Rp635
(dp636
g7
I00
sg8
I0
sg10
Nsg11
I01
sg12
I0
sg13
S'img/sand.png'
p637
sg15
g553
sg17
g18
(I1000
I200
I50
I50
tp638
Rp639
sg21
I0
sg22
(I0
I0
tp640
sg24
Nsg25
I0
sg26
I0
sg27
I0
sbag1
(g2
g3
Ntp641
Rp642
(dp643
g7
I00
sg8
I0
sg10
Nsg11
I01
sg12
I0
sg13
S'img/sand.png'
p644
sg15
g553
sg17
g18
(I1000
I200
I50
I50
tp645
Rp646
sg21
I0
sg22
(I0
I0
tp647
sg24
Nsg25
I0
sg26
I0
sg27
I0
sbag642
ag1
(g2
g3
Ntp648
Rp649
(dp650
g7
I00
sg8
I0
sg10
Nsg11
I01
sg12
I0
sg13
S'img/sand.png'
p651
sg15
g553
sg17
g18
(I1000
I200
I50
I50
tp652
Rp653
sg21
I0
sg22
(I0
I0
tp654
sg24
Nsg25
I0
sg26
I0
sg27
I0
sbag649
ag649
ag1
(g2
g3
Ntp655
Rp656
(dp657
g7
I00
sg8
I0
sg10
Nsg11
I01
sg12
I0
sg13
S'img/sand.png'
p658
sg15
g553
sg17
g18
(I1000
I200
I50
I50
tp659
Rp660
sg21
I0
sg22
(I0
I0
tp661
sg24
Nsg25
I0
sg26
I0
sg27
I0
sbag656
ag656
ag656
ag656
ag656
ag656
ag656
ag1
(g2
g3
Ntp662
Rp663
(dp664
g7
I00
sg8
I0
sg10
Nsg11
I01
sg12
I0
sg13
S'img/sand.png'
p665
sg15
g553
sg17
g18
(I1000
I150
I50
I50
tp666
Rp667
sg21
I0
sg22
(I0
I0
tp668
sg24
Nsg25
I0
sg26
I0
sg27
I0
sbag1
(g2
g3
Ntp669
Rp670
(dp671
g7
I00
sg8
I0
sg10
Nsg11
I01
sg12
I0
sg13
S'img/sand.png'
p672
sg15
g553
sg17
g18
(I1000
I150
I50
I50
tp673
Rp674
sg21
I0
sg22
(I0
I0
tp675
sg24
Nsg25
I0
sg26
I0
sg27
I0
sbag1
(g2
g3
Ntp676
Rp677
(dp678
g7
I00
sg8
I0
sg10
Nsg11
I01
sg12
I0
sg13
S'img/sand.png'
p679
sg15
g553
sg17
g18
(I1000
I150
I50
I50
tp680
Rp681
sg21
I0
sg22
(I0
I0
tp682
sg24
Nsg25
I0
sg26
I0
sg27
I0
sbag677
ag677
ag1
(g2
g3
Ntp683
Rp684
(dp685
g7
I00
sg8
I0
sg10
Nsg11
I01
sg12
I0
sg13
S'img/sand.png'
p686
sg15
g553
sg17
g18
(I1050
I150
I50
I50
tp687
Rp688
sg21
I0
sg22
(I0
I0
tp689
sg24
Nsg25
I0
sg26
I0
sg27
I0
sbag1
(g2
g3
Ntp690
Rp691
(dp692
g7
I00
sg8
I0
sg10
Nsg11
I01
sg12
I0
sg13
S'img/sand.png'
p693
sg15
g553
sg17
g18
(I1050
I150
I50
I50
tp694
Rp695
sg21
I0
sg22
(I0
I0
tp696
sg24
Nsg25
I0
sg26
I0
sg27
I0
sbag691
ag1
(g2
g3
Ntp697
Rp698
(dp699
g7
I00
sg8
I0
sg10
Nsg11
I01
sg12
I0
sg13
S'img/sand.png'
p700
sg15
g553
sg17
g18
(I1100
I150
I50
I50
tp701
Rp702
sg21
I0
sg22
(I0
I0
tp703
sg24
Nsg25
I0
sg26
I0
sg27
I0
sbag1
(g2
g3
Ntp704
Rp705
(dp706
g7
I00
sg8
I0
sg10
Nsg11
I01
sg12
I0
sg13
S'img/sand.png'
p707
sg15
g553
sg17
g18
(I1100
I150
I50
I50
tp708
Rp709
sg21
I0
sg22
(I0
I0
tp710
sg24
Nsg25
I0
sg26
I0
sg27
I0
sbag705
ag705
ag705
ag1
(g2
g3
Ntp711
Rp712
(dp713
g7
I00
sg8
I0
sg10
Nsg11
I01
sg12
I0
sg13
S'img/sand.png'
p714
sg15
g553
sg17
g18
(I1100
I150
I50
I50
tp715
Rp716
sg21
I0
sg22
(I0
I0
tp717
sg24
Nsg25
I0
sg26
I0
sg27
I0
sbag712
ag712
ag712
ag712
ag712
ag712
ag1
(g2
g3
Ntp718
Rp719
(dp720
g7
I00
sg8
I0
sg10
Nsg11
I01
sg12
I0
sg13
S'img/sand.png'
p721
sg15
g553
sg17
g18
(I1100
I200
I50
I50
tp722
Rp723
sg21
I0
sg22
(I0
I0
tp724
sg24
Nsg25
I0
sg26
I0
sg27
I0
sbag719
ag1
(g2
g3
Ntp725
Rp726
(dp727
g7
I00
sg8
I0
sg10
Nsg11
I01
sg12
I0
sg13
S'img/sand.png'
p728
sg15
g553
sg17
g18
(I1150
I200
I50
I50
tp729
Rp730
sg21
I0
sg22
(I0
I0
tp731
sg24
Nsg25
I0
sg26
I0
sg27
I0
sbag726
ag1
(g2
g3
Ntp732
Rp733
(dp734
g7
I00
sg8
I0
sg10
Nsg11
I01
sg12
I0
sg13
S'img/sand.png'
p735
sg15
g553
sg17
g18
(I1150
I200
I50
I50
tp736
Rp737
sg21
I0
sg22
(I0
I0
tp738
sg24
Nsg25
I0
sg26
I0
sg27
I0
sbag733
ag733
ag1
(g2
g3
Ntp739
Rp740
(dp741
g7
I00
sg8
I0
sg10
Nsg11
I01
sg12
I0
sg13
S'img/sand.png'
p742
sg15
g553
sg17
g18
(I1100
I250
I50
I50
tp743
Rp744
sg21
I0
sg22
(I0
I0
tp745
sg24
Nsg25
I0
sg26
I0
sg27
I0
sbag1
(g2
g3
Ntp746
Rp747
(dp748
g7
I00
sg8
I0
sg10
Nsg11
I01
sg12
I0
sg13
S'img/sand.png'
p749
sg15
g553
sg17
g18
(I1100
I250
I50
I50
tp750
Rp751
sg21
I0
sg22
(I0
I0
tp752
sg24
Nsg25
I0
sg26
I0
sg27
I0
sbag747
ag1
(g2
g3
Ntp753
Rp754
(dp755
g7
I00
sg8
I0
sg10
Nsg11
I01
sg12
I0
sg13
S'img/sand.png'
p756
sg15
g553
sg17
g18
(I1100
I300
I50
I50
tp757
Rp758
sg21
I0
sg22
(I0
I0
tp759
sg24
Nsg25
I0
sg26
I0
sg27
I0
sbag1
(g2
g3
Ntp760
Rp761
(dp762
g7
I00
sg8
I0
sg10
Nsg11
I01
sg12
I0
sg13
S'img/sand.png'
p763
sg15
g553
sg17
g18
(I950
I350
I50
I50
tp764
Rp765
sg21
I0
sg22
(I0
I0
tp766
sg24
Nsg25
I0
sg26
I0
sg27
I0
sbag1
(g2
g3
Ntp767
Rp768
(dp769
g7
I00
sg8
I0
sg10
Nsg11
I01
sg12
I0
sg13
S'img/sand.png'
p770
sg15
g553
sg17
g18
(I950
I350
I50
I50
tp771
Rp772
sg21
I0
sg22
(I0
I0
tp773
sg24
Nsg25
I0
sg26
I0
sg27
I0
sbag1
(g2
g3
Ntp774
Rp775
(dp776
g7
I00
sg8
I0
sg10
Nsg11
I01
sg12
I0
sg13
S'img/sand.png'
p777
sg15
g553
sg17
g18
(I950
I350
I50
I50
tp778
Rp779
sg21
I0
sg22
(I0
I0
tp780
sg24
Nsg25
I0
sg26
I0
sg27
I0
sbag775
ag775
ag775
ag1
(g2
g3
Ntp781
Rp782
(dp783
g7
I00
sg8
I0
sg10
Nsg11
I01
sg12
I0
sg13
S'img/sand.png'
p784
sg15
g553
sg17
g18
(I1000
I300
I50
I50
tp785
Rp786
sg21
I0
sg22
(I0
I0
tp787
sg24
Nsg25
I0
sg26
I0
sg27
I0
sbag782
ag1
(g2
g3
Ntp788
Rp789
(dp790
g7
I00
sg8
I0
sg10
Nsg11
I01
sg12
I0
sg13
S'img/sand.png'
p791
sg15
g553
sg17
g18
(I1000
I250
I50
I50
tp792
Rp793
sg21
I0
sg22
(I0
I0
tp794
sg24
Nsg25
I0
sg26
I0
sg27
I0
sbag1
(g2
g3
Ntp795
Rp796
(dp797
g7
I00
sg8
I0
sg10
Nsg11
I01
sg12
I0
sg13
S'img/sand.png'
p798
sg15
g553
sg17
g18
(I1000
I250
I50
I50
tp799
Rp800
sg21
I0
sg22
(I0
I0
tp801
sg24
Nsg25
I0
sg26
I0
sg27
I0
sbag796
ag1
(g2
g3
Ntp802
Rp803
(dp804
g7
I00
sg8
I0
sg10
Nsg11
I01
sg12
I0
sg13
S'img/sand.png'
p805
sg15
g553
sg17
g18
(I1050
I250
I50
I50
tp806
Rp807
sg21
I0
sg22
(I0
I0
tp808
sg24
Nsg25
I0
sg26
I0
sg27
I0
sbag1
(g2
g3
Ntp809
Rp810
(dp811
g7
I00
sg8
I0
sg10
Nsg11
I01
sg12
I0
sg13
S'img/sand.png'
p812
sg15
g553
sg17
g18
(I1050
I300
I50
I50
tp813
Rp814
sg21
I0
sg22
(I0
I0
tp815
sg24
Nsg25
I0
sg26
I0
sg27
I0
sbag810
ag1
(g2
g3
Ntp816
Rp817
(dp818
g7
I00
sg8
I0
sg10
Nsg11
I01
sg12
I0
sg13
S'img/sand.png'
p819
sg15
g553
sg17
g18
(I1050
I300
I50
I50
tp820
Rp821
sg21
I0
sg22
(I0
I0
tp822
sg24
Nsg25
I0
sg26
I0
sg27
I0
sbag817
ag817
ag817
ag817
ag1
(g2
g3
Ntp823
Rp824
(dp825
g7
I00
sg8
I0
sg10
Nsg11
I01
sg12
I0
sg13
S'img/sand.png'
p826
sg15
g553
sg17
g18
(I1100
I300
I50
I50
tp827
Rp828
sg21
I0
sg22
(I0
I0
tp829
sg24
Nsg25
I0
sg26
I0
sg27
I0
sbag824
ag1
(g2
g3
Ntp830
Rp831
(dp832
g7
I00
sg8
I0
sg10
Nsg11
I01
sg12
I0
sg13
S'img/sand.png'
p833
sg15
g553
sg17
g18
(I950
I500
I50
I50
tp834
Rp835
sg21
I0
sg22
(I0
I0
tp836
sg24
Nsg25
I0
sg26
I0
sg27
I0
sbag1
(g2
g3
Ntp837
Rp838
(dp839
g7
I00
sg8
I0
sg10
Nsg11
I01
sg12
I0
sg13
S'img/sand.png'
p840
sg15
g553
sg17
g18
(I950
I500
I50
I50
tp841
Rp842
sg21
I0
sg22
(I0
I0
tp843
sg24
Nsg25
I0
sg26
I0
sg27
I0
sbag838
ag1
(g2
g3
Ntp844
Rp845
(dp846
g7
I00
sg8
I0
sg10
Nsg11
I01
sg12
I0
sg13
S'img/sand.png'
p847
sg15
g553
sg17
g18
(I850
I500
I50
I50
tp848
Rp849
sg21
I0
sg22
(I0
I0
tp850
sg24
Nsg25
I0
sg26
I0
sg27
I0
sbag845
ag1
(g2
g3
Ntp851
Rp852
(dp853
g7
I00
sg8
I0
sg10
Nsg11
I01
sg12
I0
sg13
S'img/sand.png'
p854
sg15
g553
sg17
g18
(I850
I500
I50
I50
tp855
Rp856
sg21
I0
sg22
(I0
I0
tp857
sg24
Nsg25
I0
sg26
I0
sg27
I0
sbag852
ag1
(g2
g3
Ntp858
Rp859
(dp860
g7
I00
sg8
I0
sg10
Nsg11
I01
sg12
I0
sg13
S'img/sand.png'
p861
sg15
g553
sg17
g18
(I950
I600
I50
I50
tp862
Rp863
sg21
I0
sg22
(I0
I0
tp864
sg24
Nsg25
I0
sg26
I0
sg27
I0
sbag1
(g2
g3
Ntp865
Rp866
(dp867
g7
I00
sg8
I0
sg10
Nsg11
I01
sg12
I0
sg13
S'img/sand.png'
p868
sg15
g553
sg17
g18
(I900
I600
I50
I50
tp869
Rp870
sg21
I0
sg22
(I0
I0
tp871
sg24
Nsg25
I0
sg26
I0
sg27
I0
sbag1
(g2
g3
Ntp872
Rp873
(dp874
g7
I00
sg8
I0
sg10
Nsg11
I01
sg12
I0
sg13
S'img/sand.png'
p875
sg15
g553
sg17
g18
(I850
I650
I50
I50
tp876
Rp877
sg21
I0
sg22
(I0
I0
tp878
sg24
Nsg25
I0
sg26
I0
sg27
I0
sbag1
(g2
g3
Ntp879
Rp880
(dp881
g7
I00
sg8
I0
sg10
Nsg11
I01
sg12
I0
sg13
S'img/sand.png'
p882
sg15
g553
sg17
g18
(I800
I650
I50
I50
tp883
Rp884
sg21
I0
sg22
(I0
I0
tp885
sg24
Nsg25
I0
sg26
I0
sg27
I0
sbag1
(g2
g3
Ntp886
Rp887
(dp888
g7
I00
sg8
I0
sg10
Nsg11
I01
sg12
I0
sg13
S'img/sand.png'
p889
sg15
g553
sg17
g18
(I850
I600
I50
I50
tp890
Rp891
sg21
I0
sg22
(I0
I0
tp892
sg24
Nsg25
I0
sg26
I0
sg27
I0
sbag1
(g2
g3
Ntp893
Rp894
(dp895
g7
I00
sg8
I0
sg10
Nsg11
I01
sg12
I0
sg13
S'img/sand.png'
p896
sg15
g553
sg17
g18
(I850
I600
I50
I50
tp897
Rp898
sg21
I0
sg22
(I0
I0
tp899
sg24
Nsg25
I0
sg26
I0
sg27
I0
sbag894
ag1
(g2
g3
Ntp900
Rp901
(dp902
g7
I00
sg8
I0
sg10
Nsg11
I01
sg12
I0
sg13
S'img/sand.png'
p903
sg15
g553
sg17
g18
(I750
I650
I50
I50
tp904
Rp905
sg21
I0
sg22
(I0
I0
tp906
sg24
Nsg25
I0
sg26
I0
sg27
I0
sbag901
ag1
(g2
g3
Ntp907
Rp908
(dp909
g7
I00
sg8
I0
sg10
Nsg11
I01
sg12
I0
sg13
S'img/sand.png'
p910
sg15
S'sand.png'
p911
sg17
g18
(I150
I250
I50
I50
tp912
Rp913
sg21
I0
sg22
(I0
I0
tp914
sg24
Nsg25
I0
sg26
I0
sg27
I0
sbag1
(g2
g3
Ntp915
Rp916
(dp917
g7
I00
sg8
I0
sg10
Nsg11
I01
sg12
I0
sg13
S'img/sand.png'
p918
sg15
g911
sg17
g18
(I150
I250
I50
I50
tp919
Rp920
sg21
I0
sg22
(I0
I0
tp921
sg24
Nsg25
I0
sg26
I0
sg27
I0
sbag1
(g2
g3
Ntp922
Rp923
(dp924
g7
I00
sg8
I0
sg10
Nsg11
I01
sg12
I0
sg13
S'img/sand.png'
p925
sg15
g911
sg17
g18
(I150
I250
I50
I50
tp926
Rp927
sg21
I0
sg22
(I0
I0
tp928
sg24
Nsg25
I0
sg26
I0
sg27
I0
sbag923
ag923
ag1
(g2
g3
Ntp929
Rp930
(dp931
g7
I00
sg8
I0
sg10
Nsg11
I01
sg12
I0
sg13
S'img/sand.png'
p932
sg15
g911
sg17
g18
(I600
I350
I50
I50
tp933
Rp934
sg21
I0
sg22
(I0
I0
tp935
sg24
Nsg25
I0
sg26
I0
sg27
I0
sbag1
(g2
g3
Ntp936
Rp937
(dp938
g7
I00
sg8
I0
sg10
Nsg11
I01
sg12
I0
sg13
S'img/sand.png'
p939
sg15
g911
sg17
g18
(I450
I250
I50
I50
tp940
Rp941
sg21
I0
sg22
(I0
I0
tp942
sg24
Nsg25
I0
sg26
I0
sg27
I0
sbag1
(g2
g3
Ntp943
Rp944
(dp945
g7
I00
sg8
I0
sg10
Nsg11
I01
sg12
I0
sg13
S'img/sand.png'
p946
sg15
g911
sg17
g18
(I400
I200
I50
I50
tp947
Rp948
sg21
I0
sg22
(I0
I0
tp949
sg24
Nsg25
I0
sg26
I0
sg27
I0
sbag1
(g2
g3
Ntp950
Rp951
(dp952
g7
I00
sg8
I0
sg10
Nsg11
I01
sg12
I0
sg13
S'img/sand.png'
p953
sg15
g911
sg17
g18
(I400
I200
I50
I50
tp954
Rp955
sg21
I0
sg22
(I0
I0
tp956
sg24
Nsg25
I0
sg26
I0
sg27
I0
sbag1
(g2
g3
Ntp957
Rp958
(dp959
g7
I00
sg8
I0
sg10
Nsg11
I01
sg12
I0
sg13
S'img/sand.png'
p960
sg15
g911
sg17
g18
(I400
I200
I50
I50
tp961
Rp962
sg21
I0
sg22
(I0
I0
tp963
sg24
Nsg25
I0
sg26
I0
sg27
I0
sbag958
ag1
(g2
g3
Ntp964
Rp965
(dp966
g7
I00
sg8
I0
sg10
Nsg11
I01
sg12
I0
sg13
S'img/sand.png'
p967
sg15
g911
sg17
g18
(I400
I200
I50
I50
tp968
Rp969
sg21
I0
sg22
(I0
I0
tp970
sg24
Nsg25
I0
sg26
I0
sg27
I0
sbag965
ag965
ag965
ag1
(g2
g3
Ntp971
Rp972
(dp973
g7
I00
sg8
I0
sg10
Nsg11
I01
sg12
I0
sg13
S'img/sand.png'
p974
sg15
g911
sg17
g18
(I400
I200
I50
I50
tp975
Rp976
sg21
I0
sg22
(I0
I0
tp977
sg24
Nsg25
I0
sg26
I0
sg27
I0
sbag972
ag972
ag972
ag972
ag972
ag972
ag972
ag972
ag1
(g2
g3
Ntp978
Rp979
(dp980
g7
I00
sg8
I0
sg10
Nsg11
I01
sg12
I0
sg13
S'img/sand.png'
p981
sg15
g911
sg17
g18
(I400
I250
I50
I50
tp982
Rp983
sg21
I0
sg22
(I0
I0
tp984
sg24
Nsg25
I0
sg26
I0
sg27
I0
sbag1
(g2
g3
Ntp985
Rp986
(dp987
g7
I00
sg8
I0
sg10
Nsg11
I01
sg12
I0
sg13
S'img/sand.png'
p988
sg15
g911
sg17
g18
(I400
I250
I50
I50
tp989
Rp990
sg21
I0
sg22
(I0
I0
tp991
sg24
Nsg25
I0
sg26
I0
sg27
I0
sbag1
(g2
g3
Ntp992
Rp993
(dp994
g7
I00
sg8
I0
sg10
Nsg11
I01
sg12
I0
sg13
S'img/sand.png'
p995
sg15
g911
sg17
g18
(I400
I250
I50
I50
tp996
Rp997
sg21
I0
sg22
(I0
I0
tp998
sg24
Nsg25
I0
sg26
I0
sg27
I0
sbag993
ag993
ag1
(g2
g3
Ntp999
Rp1000
(dp1001
g7
I00
sg8
I0
sg10
Nsg11
I01
sg12
I0
sg13
S'img/sand.png'
p1002
sg15
g911
sg17
g18
(I400
I250
I50
I50
tp1003
Rp1004
sg21
I0
sg22
(I0
I0
tp1005
sg24
Nsg25
I0
sg26
I0
sg27
I0
sbag1000
ag1000
ag1000
ag1000
ag1
(g2
g3
Ntp1006
Rp1007
(dp1008
g7
I00
sg8
I0
sg10
Nsg11
I01
sg12
I0
sg13
S'img/sand.png'
p1009
sg15
g911
sg17
g18
(I400
I300
I50
I50
tp1010
Rp1011
sg21
I0
sg22
(I0
I0
tp1012
sg24
Nsg25
I0
sg26
I0
sg27
I0
sbag1
(g2
g3
Ntp1013
Rp1014
(dp1015
g7
I00
sg8
I0
sg10
Nsg11
I01
sg12
I0
sg13
S'img/sand.png'
p1016
sg15
g911
sg17
g18
(I400
I300
I50
I50
tp1017
Rp1018
sg21
I0
sg22
(I0
I0
tp1019
sg24
Nsg25
I0
sg26
I0
sg27
I0
sbag1
(g2
g3
Ntp1020
Rp1021
(dp1022
g7
I00
sg8
I0
sg10
Nsg11
I01
sg12
I0
sg13
S'img/sand.png'
p1023
sg15
g911
sg17
g18
(I350
I300
I50
I50
tp1024
Rp1025
sg21
I0
sg22
(I0
I0
tp1026
sg24
Nsg25
I0
sg26
I0
sg27
I0
sbag1
(g2
g3
Ntp1027
Rp1028
(dp1029
g7
I00
sg8
I0
sg10
Nsg11
I01
sg12
I0
sg13
S'img/sand.png'
p1030
sg15
g911
sg17
g18
(I200
I300
I50
I50
tp1031
Rp1032
sg21
I0
sg22
(I0
I0
tp1033
sg24
Nsg25
I0
sg26
I0
sg27
I0
sbag1
(g2
g3
Ntp1034
Rp1035
(dp1036
g7
I00
sg8
I0
sg10
Nsg11
I01
sg12
I0
sg13
S'img/sand.png'
p1037
sg15
g911
sg17
g18
(I200
I300
I50
I50
tp1038
Rp1039
sg21
I0
sg22
(I0
I0
tp1040
sg24
Nsg25
I0
sg26
I0
sg27
I0
sbag1035
ag1
(g2
g3
Ntp1041
Rp1042
(dp1043
g7
I00
sg8
I0
sg10
Nsg11
I01
sg12
I0
sg13
S'img/sand.png'
p1044
sg15
g911
sg17
g18
(I150
I300
I50
I50
tp1045
Rp1046
sg21
I0
sg22
(I0
I0
tp1047
sg24
Nsg25
I0
sg26
I0
sg27
I0
sbag1
(g2
g3
Ntp1048
Rp1049
(dp1050
g7
I00
sg8
I0
sg10
Nsg11
I01
sg12
I0
sg13
S'img/sand.png'
p1051
sg15
g911
sg17
g18
(I150
I300
I50
I50
tp1052
Rp1053
sg21
I0
sg22
(I0
I0
tp1054
sg24
Nsg25
I0
sg26
I0
sg27
I0
sbag1
(g2
g3
Ntp1055
Rp1056
(dp1057
g7
I00
sg8
I0
sg10
Nsg11
I01
sg12
I0
sg13
S'img/sand.png'
p1058
sg15
g911
sg17
g18
(I150
I300
I50
I50
tp1059
Rp1060
sg21
I0
sg22
(I0
I0
tp1061
sg24
Nsg25
I0
sg26
I0
sg27
I0
sbag1056
ag1
(g2
g3
Ntp1062
Rp1063
(dp1064
g7
I00
sg8
I0
sg10
Nsg11
I01
sg12
I0
sg13
S'img/sand.png'
p1065
sg15
g911
sg17
g18
(I150
I300
I50
I50
tp1066
Rp1067
sg21
I0
sg22
(I0
I0
tp1068
sg24
Nsg25
I0
sg26
I0
sg27
I0
sbag1063
ag1063
ag1063
ag1
(g2
g3
Ntp1069
Rp1070
(dp1071
g7
I00
sg8
I0
sg10
Nsg11
I01
sg12
I0
sg13
S'img/sand.png'
p1072
sg15
g911
sg17
g18
(I100
I250
I50
I50
tp1073
Rp1074
sg21
I0
sg22
(I0
I0
tp1075
sg24
Nsg25
I0
sg26
I0
sg27
I0
sbag1
(g2
g3
Ntp1076
Rp1077
(dp1078
g7
I00
sg8
I0
sg10
Nsg11
I01
sg12
I0
sg13
S'img/sand.png'
p1079
sg15
g911
sg17
g18
(I100
I250
I50
I50
tp1080
Rp1081
sg21
I0
sg22
(I0
I0
tp1082
sg24
Nsg25
I0
sg26
I0
sg27
I0
sbag1077
ag1
(g2
g3
Ntp1083
Rp1084
(dp1085
g7
I00
sg8
I0
sg10
Nsg11
I01
sg12
I0
sg13
S'img/sand.png'
p1086
sg15
g911
sg17
g18
(I100
I250
I50
I50
tp1087
Rp1088
sg21
I0
sg22
(I0
I0
tp1089
sg24
Nsg25
I0
sg26
I0
sg27
I0
sbag1084
ag1084
ag1084
ag1
(g2
g3
Ntp1090
Rp1091
(dp1092
g7
I00
sg8
I0
sg10
Nsg11
I01
sg12
I0
sg13
S'img/sand.png'
p1093
sg15
g911
sg17
g18
(I100
I200
I50
I50
tp1094
Rp1095
sg21
I0
sg22
(I0
I0
tp1096
sg24
Nsg25
I0
sg26
I0
sg27
I0
sbag1
(g2
g3
Ntp1097
Rp1098
(dp1099
g7
I00
sg8
I0
sg10
Nsg11
I01
sg12
I0
sg13
S'img/sand.png'
p1100
sg15
g911
sg17
g18
(I100
I200
I50
I50
tp1101
Rp1102
sg21
I0
sg22
(I0
I0
tp1103
sg24
Nsg25
I0
sg26
I0
sg27
I0
sbag1098
ag1
(g2
g3
Ntp1104
Rp1105
(dp1106
g7
I00
sg8
I0
sg10
Nsg11
I01
sg12
I0
sg13
S'img/sand.png'
p1107
sg15
g911
sg17
g18
(I150
I200
I50
I50
tp1108
Rp1109
sg21
I0
sg22
(I0
I0
tp1110
sg24
Nsg25
I0
sg26
I0
sg27
I0
sbag1
(g2
g3
Ntp1111
Rp1112
(dp1113
g7
I00
sg8
I0
sg10
Nsg11
I01
sg12
I0
sg13
S'img/sand.png'
p1114
sg15
g911
sg17
g18
(I150
I200
I50
I50
tp1115
Rp1116
sg21
I0
sg22
(I0
I0
tp1117
sg24
Nsg25
I0
sg26
I0
sg27
I0
sbag1
(g2
g3
Ntp1118
Rp1119
(dp1120
g7
I00
sg8
I0
sg10
Nsg11
I01
sg12
I0
sg13
S'img/sand.png'
p1121
sg15
g911
sg17
g18
(I150
I200
I50
I50
tp1122
Rp1123
sg21
I0
sg22
(I0
I0
tp1124
sg24
Nsg25
I0
sg26
I0
sg27
I0
sbag1119
ag1
(g2
g3
Ntp1125
Rp1126
(dp1127
g7
I00
sg8
I0
sg10
Nsg11
I01
sg12
I0
sg13
S'img/sand.png'
p1128
sg15
g911
sg17
g18
(I150
I150
I50
I50
tp1129
Rp1130
sg21
I0
sg22
(I0
I0
tp1131
sg24
Nsg25
I0
sg26
I0
sg27
I0
sbag1
(g2
g3
Ntp1132
Rp1133
(dp1134
g7
I00
sg8
I0
sg10
Nsg11
I01
sg12
I0
sg13
S'img/sand.png'
p1135
sg15
g911
sg17
g18
(I150
I150
I50
I50
tp1136
Rp1137
sg21
I0
sg22
(I0
I0
tp1138
sg24
Nsg25
I0
sg26
I0
sg27
I0
sbag1
(g2
g3
Ntp1139
Rp1140
(dp1141
g7
I00
sg8
I0
sg10
Nsg11
I01
sg12
I0
sg13
S'img/sand.png'
p1142
sg15
g911
sg17
g18
(I150
I150
I50
I50
tp1143
Rp1144
sg21
I0
sg22
(I0
I0
tp1145
sg24
Nsg25
I0
sg26
I0
sg27
I0
sbag1140
ag1140
ag1
(g2
g3
Ntp1146
Rp1147
(dp1148
g7
I00
sg8
I0
sg10
Nsg11
I01
sg12
I0
sg13
S'img/sand.png'
p1149
sg15
g911
sg17
g18
(I150
I150
I50
I50
tp1150
Rp1151
sg21
I0
sg22
(I0
I0
tp1152
sg24
Nsg25
I0
sg26
I0
sg27
I0
sbag1147
ag1147
ag1147
ag1147
ag1147
ag1
(g2
g3
Ntp1153
Rp1154
(dp1155
g7
I00
sg8
I0
sg10
Nsg11
I01
sg12
I0
sg13
S'img/sand.png'
p1156
sg15
g911
sg17
g18
(I150
I150
I50
I50
tp1157
Rp1158
sg21
I0
sg22
(I0
I0
tp1159
sg24
Nsg25
I0
sg26
I0
sg27
I0
sbag1154
ag1154
ag1154
ag1154
ag1154
ag1154
ag1154
ag1154
ag1154
ag1154
ag1154
ag1
(g2
g3
Ntp1160
Rp1161
(dp1162
g7
I00
sg8
I0
sg10
Nsg11
I01
sg12
I0
sg13
S'img/sand.png'
p1163
sg15
g911
sg17
g18
(I150
I150
I50
I50
tp1164
Rp1165
sg21
I0
sg22
(I0
I0
tp1166
sg24
Nsg25
I0
sg26
I0
sg27
I0
sbag1161
ag1161
ag1161
ag1161
ag1161
ag1161
ag1161
ag1161
ag1161
ag1161
ag1161
ag1161
ag1161
ag1161
ag1161
ag1161
ag1161
ag1161
ag1161
ag1161
ag1161
ag1161
ag1161
ag1
(g2
g3
Ntp1167
Rp1168
(dp1169
g7
I00
sg8
I0
sg10
Nsg11
I01
sg12
I0
sg13
S'img/sand.png'
p1170
sg15
g911
sg17
g18
(I200
I150
I50
I50
tp1171
Rp1172
sg21
I0
sg22
(I0
I0
tp1173
sg24
Nsg25
I0
sg26
I0
sg27
I0
sbag1
(g2
g3
Ntp1174
Rp1175
(dp1176
g7
I00
sg8
I0
sg10
Nsg11
I01
sg12
I0
sg13
S'img/sand.png'
p1177
sg15
g911
sg17
g18
(I200
I150
I50
I50
tp1178
Rp1179
sg21
I0
sg22
(I0
I0
tp1180
sg24
Nsg25
I0
sg26
I0
sg27
I0
sbag1
(g2
g3
Ntp1181
Rp1182
(dp1183
g7
I00
sg8
I0
sg10
Nsg11
I01
sg12
I0
sg13
S'img/sand.png'
p1184
sg15
g911
sg17
g18
(I200
I150
I50
I50
tp1185
Rp1186
sg21
I0
sg22
(I0
I0
tp1187
sg24
Nsg25
I0
sg26
I0
sg27
I0
sbag1182
ag1
(g2
g3
Ntp1188
Rp1189
(dp1190
g7
I00
sg8
I0
sg10
Nsg11
I01
sg12
I0
sg13
S'img/sand.png'
p1191
sg15
g911
sg17
g18
(I200
I150
I50
I50
tp1192
Rp1193
sg21
I0
sg22
(I0
I0
tp1194
sg24
Nsg25
I0
sg26
I0
sg27
I0
sbag1189
ag1189
ag1189
ag1189
ag1
(g2
g3
Ntp1195
Rp1196
(dp1197
g7
I00
sg8
I0
sg10
Nsg11
I01
sg12
I0
sg13
S'img/sand.png'
p1198
sg15
g911
sg17
g18
(I200
I150
I50
I50
tp1199
Rp1200
sg21
I0
sg22
(I0
I0
tp1201
sg24
Nsg25
I0
sg26
I0
sg27
I0
sbag1196
ag1196
ag1196
ag1196
ag1196
ag1196
ag1196
ag1196
ag1196
ag1
(g2
g3
Ntp1202
Rp1203
(dp1204
g7
I00
sg8
I0
sg10
Nsg11
I01
sg12
I0
sg13
S'img/sand.png'
p1205
sg15
g911
sg17
g18
(I200
I150
I50
I50
tp1206
Rp1207
sg21
I0
sg22
(I0
I0
tp1208
sg24
Nsg25
I0
sg26
I0
sg27
I0
sbag1203
ag1203
ag1203
ag1203
ag1203
ag1203
ag1203
ag1203
ag1203
ag1203
ag1203
ag1203
ag1203
ag1203
ag1203
ag1203
ag1203
ag1203
ag1203
ag1
(g2
g3
Ntp1209
Rp1210
(dp1211
g7
I00
sg8
I0
sg10
Nsg11
I01
sg12
I0
sg13
S'img/sand.png'
p1212
sg15
g911
sg17
g18
(I250
I150
I50
I50
tp1213
Rp1214
sg21
I0
sg22
(I0
I0
tp1215
sg24
Nsg25
I0
sg26
I0
sg27
I0
sbag1
(g2
g3
Ntp1216
Rp1217
(dp1218
g7
I00
sg8
I0
sg10
Nsg11
I01
sg12
I0
sg13
S'img/sand.png'
p1219
sg15
g911
sg17
g18
(I250
I150
I50
I50
tp1220
Rp1221
sg21
I0
sg22
(I0
I0
tp1222
sg24
Nsg25
I0
sg26
I0
sg27
I0
sbag1217
ag1
(g2
g3
Ntp1223
Rp1224
(dp1225
g7
I00
sg8
I0
sg10
Nsg11
I01
sg12
I0
sg13
S'img/sand.png'
p1226
sg15
g911
sg17
g18
(I250
I150
I50
I50
tp1227
Rp1228
sg21
I0
sg22
(I0
I0
tp1229
sg24
Nsg25
I0
sg26
I0
sg27
I0
sbag1224
ag1224
ag1
(g2
g3
Ntp1230
Rp1231
(dp1232
g7
I00
sg8
I0
sg10
Nsg11
I01
sg12
I0
sg13
S'img/sand.png'
p1233
sg15
g911
sg17
g18
(I250
I150
I50
I50
tp1234
Rp1235
sg21
I0
sg22
(I0
I0
tp1236
sg24
Nsg25
I0
sg26
I0
sg27
I0
sbag1231
ag1231
ag1231
ag1231
ag1231
ag1231
ag1
(g2
g3
Ntp1237
Rp1238
(dp1239
g7
I00
sg8
I0
sg10
Nsg11
I01
sg12
I0
sg13
S'img/sand.png'
p1240
sg15
g911
sg17
g18
(I350
I150
I50
I50
tp1241
Rp1242
sg21
I0
sg22
(I0
I0
tp1243
sg24
Nsg25
I0
sg26
I0
sg27
I0
sbag1
(g2
g3
Ntp1244
Rp1245
(dp1246
g7
I00
sg8
I0
sg10
Nsg11
I01
sg12
I0
sg13
S'img/sand.png'
p1247
sg15
g911
sg17
g18
(I350
I150
I50
I50
tp1248
Rp1249
sg21
I0
sg22
(I0
I0
tp1250
sg24
Nsg25
I0
sg26
I0
sg27
I0
sbag1
(g2
g3
Ntp1251
Rp1252
(dp1253
g7
I00
sg8
I0
sg10
Nsg11
I01
sg12
I0
sg13
S'img/sand.png'
p1254
sg15
g911
sg17
g18
(I450
I150
I50
I50
tp1255
Rp1256
sg21
I0
sg22
(I0
I0
tp1257
sg24
Nsg25
I0
sg26
I0
sg27
I0
sbag1
(g2
g3
Ntp1258
Rp1259
(dp1260
g7
I00
sg8
I0
sg10
Nsg11
I01
sg12
I0
sg13
S'img/sand.png'
p1261
sg15
g911
sg17
g18
(I450
I150
I50
I50
tp1262
Rp1263
sg21
I0
sg22
(I0
I0
tp1264
sg24
Nsg25
I0
sg26
I0
sg27
I0
sbag1
(g2
g3
Ntp1265
Rp1266
(dp1267
g7
I00
sg8
I0
sg10
Nsg11
I01
sg12
I0
sg13
S'img/sand.png'
p1268
sg15
g911
sg17
g18
(I450
I150
I50
I50
tp1269
Rp1270
sg21
I0
sg22
(I0
I0
tp1271
sg24
Nsg25
I0
sg26
I0
sg27
I0
sbag1266
ag1266
ag1
(g2
g3
Ntp1272
Rp1273
(dp1274
g7
I00
sg8
I0
sg10
Nsg11
I01
sg12
I0
sg13
S'img/sand.png'
p1275
sg15
g911
sg17
g18
(I450
I150
I50
I50
tp1276
Rp1277
sg21
I0
sg22
(I0
I0
tp1278
sg24
Nsg25
I0
sg26
I0
sg27
I0
sbag1273
ag1273
ag1273
ag1273
ag1273
ag1
(g2
g3
Ntp1279
Rp1280
(dp1281
g7
I00
sg8
I0
sg10
Nsg11
I01
sg12
I0
sg13
S'img/sand.png'
p1282
sg15
g911
sg17
g18
(I500
I200
I50
I50
tp1283
Rp1284
sg21
I0
sg22
(I0
I0
tp1285
sg24
Nsg25
I0
sg26
I0
sg27
I0
sbag1
(g2
g3
Ntp1286
Rp1287
(dp1288
g7
I00
sg8
I0
sg10
Nsg11
I01
sg12
I0
sg13
S'img/sand.png'
p1289
sg15
g911
sg17
g18
(I650
I250
I50
I50
tp1290
Rp1291
sg21
I0
sg22
(I0
I0
tp1292
sg24
Nsg25
I0
sg26
I0
sg27
I0
sbag1
(g2
g3
Ntp1293
Rp1294
(dp1295
g7
I00
sg8
I0
sg10
Nsg11
I01
sg12
I0
sg13
S'img/sand.png'
p1296
sg15
g911
sg17
g18
(I700
I250
I50
I50
tp1297
Rp1298
sg21
I0
sg22
(I0
I0
tp1299
sg24
Nsg25
I0
sg26
I0
sg27
I0
sbag1
(g2
g3
Ntp1300
Rp1301
(dp1302
g7
I00
sg8
I0
sg10
Nsg11
I01
sg12
I0
sg13
S'img/sand.png'
p1303
sg15
g911
sg17
g18
(I750
I300
I50
I50
tp1304
Rp1305
sg21
I0
sg22
(I0
I0
tp1306
sg24
Nsg25
I0
sg26
I0
sg27
I0
sbag1
(g2
g3
Ntp1307
Rp1308
(dp1309
g7
I00
sg8
I0
sg10
Nsg11
I01
sg12
I0
sg13
S'img/sand.png'
p1310
sg15
g911
sg17
g18
(I750
I300
I50
I50
tp1311
Rp1312
sg21
I0
sg22
(I0
I0
tp1313
sg24
Nsg25
I0
sg26
I0
sg27
I0
sbag1308
ag1
(g2
g3
Ntp1314
Rp1315
(dp1316
g7
I00
sg8
I0
sg10
Nsg11
I01
sg12
I0
sg13
S'img/sand.png'
p1317
sg15
g911
sg17
g18
(I750
I350
I50
I50
tp1318
Rp1319
sg21
I0
sg22
(I0
I0
tp1320
sg24
Nsg25
I0
sg26
I0
sg27
I0
sbag1
(g2
g3
Ntp1321
Rp1322
(dp1323
g7
I00
sg8
I0
sg10
Nsg11
I01
sg12
I0
sg13
S'img/sand.png'
p1324
sg15
g911
sg17
g18
(I750
I350
I50
I50
tp1325
Rp1326
sg21
I0
sg22
(I0
I0
tp1327
sg24
Nsg25
I0
sg26
I0
sg27
I0
sbag1
(g2
g3
Ntp1328
Rp1329
(dp1330
g7
I00
sg8
I0
sg10
Nsg11
I01
sg12
I0
sg13
S'img/sand.png'
p1331
sg15
g911
sg17
g18
(I750
I350
I50
I50
tp1332
Rp1333
sg21
I0
sg22
(I0
I0
tp1334
sg24
Nsg25
I0
sg26
I0
sg27
I0
sbag1329
ag1329
ag1
(g2
g3
Ntp1335
Rp1336
(dp1337
g7
I00
sg8
I0
sg10
Nsg11
I01
sg12
I0
sg13
S'img/sand.png'
p1338
sg15
g911
sg17
g18
(I750
I400
I50
I50
tp1339
Rp1340
sg21
I0
sg22
(I0
I0
tp1341
sg24
Nsg25
I0
sg26
I0
sg27
I0
sbag1
(g2
g3
Ntp1342
Rp1343
(dp1344
g7
I00
sg8
I0
sg10
Nsg11
I01
sg12
I0
sg13
S'img/sand.png'
p1345
sg15
g911
sg17
g18
(I700
I400
I50
I50
tp1346
Rp1347
sg21
I0
sg22
(I0
I0
tp1348
sg24
Nsg25
I0
sg26
I0
sg27
I0
sbag1
(g2
g3
Ntp1349
Rp1350
(dp1351
g7
I00
sg8
I0
sg10
Nsg11
I01
sg12
I0
sg13
S'img/sand.png'
p1352
sg15
g911
sg17
g18
(I700
I450
I50
I50
tp1353
Rp1354
sg21
I0
sg22
(I0
I0
tp1355
sg24
Nsg25
I0
sg26
I0
sg27
I0
sbag1
(g2
g3
Ntp1356
Rp1357
(dp1358
g7
I00
sg8
I0
sg10
Nsg11
I01
sg12
I0
sg13
S'img/sand.png'
p1359
sg15
g911
sg17
g18
(I750
I450
I50
I50
tp1360
Rp1361
sg21
I0
sg22
(I0
I0
tp1362
sg24
Nsg25
I0
sg26
I0
sg27
I0
sbag1357
ag1
(g2
g3
Ntp1363
Rp1364
(dp1365
g7
I00
sg8
I0
sg10
Nsg11
I01
sg12
I0
sg13
S'img/sand.png'
p1366
sg15
g911
sg17
g18
(I750
I450
I50
I50
tp1367
Rp1368
sg21
I0
sg22
(I0
I0
tp1369
sg24
Nsg25
I0
sg26
I0
sg27
I0
sbag1364
ag1
(g2
g3
Ntp1370
Rp1371
(dp1372
g7
I00
sg8
I0
sg10
Nsg11
I00
sg12
I0
sg13
S'img/sand.png'
p1373
sg15
S'sand.png'
p1374
sg22
(I0
I0
tp1375
sg21
I0
sg17
g18
(I1450
I550
I50
I50
tp1376
Rp1377
sg24
Nsg25
I0
sg26
I0
sg27
I0
sbag1
(g2
g3
Ntp1378
Rp1379
(dp1380
g7
I00
sg8
I0
sg10
Nsg11
I00
sg12
I0
sg13
S'img/sand.png'
p1381
sg15
g1374
sg22
(I0
I0
tp1382
sg21
I0
sg17
g18
(I1450
I550
I50
I50
tp1383
Rp1384
sg24
Nsg25
I0
sg26
I0
sg27
I0
sbag1
(g2
g3
Ntp1385
Rp1386
(dp1387
g7
I00
sg8
I0
sg10
Nsg11
I00
sg12
I0
sg13
S'img/sand.png'
p1388
sg15
g1374
sg22
(I0
I0
tp1389
sg21
I0
sg17
g18
(I1350
I900
I50
I50
tp1390
Rp1391
sg24
Nsg25
I0
sg26
I0
sg27
I0
sbag1
(g2
g3
Ntp1392
Rp1393
(dp1394
g7
I00
sg8
I0
sg10
Nsg11
I00
sg12
I0
sg13
S'img/sand.png'
p1395
sg15
g1374
sg22
(I0
I0
tp1396
sg21
I0
sg17
g18
(I1300
I900
I50
I50
tp1397
Rp1398
sg24
Nsg25
I0
sg26
I0
sg27
I0
sbag1
(g2
g3
Ntp1399
Rp1400
(dp1401
g7
I00
sg8
I0
sg10
Nsg11
I00
sg12
I0
sg13
S'img/sand.png'
p1402
sg15
g1374
sg22
(I0
I0
tp1403
sg21
I0
sg17
g18
(I1300
I900
I50
I50
tp1404
Rp1405
sg24
Nsg25
I0
sg26
I0
sg27
I0
sbag1
(g2
g3
Ntp1406
Rp1407
(dp1408
g7
I00
sg8
I0
sg10
Nsg11
I00
sg12
I0
sg13
S'img/sand.png'
p1409
sg15
g1374
sg22
(I0
I0
tp1410
sg21
I0
sg17
g18
(I1500
I900
I50
I50
tp1411
Rp1412
sg24
Nsg25
I0
sg26
I0
sg27
I0
sbag1
(g2
g3
Ntp1413
Rp1414
(dp1415
g7
I00
sg8
I0
sg10
Nsg11
I00
sg12
I0
sg13
S'img/sand.png'
p1416
sg15
g1374
sg22
(I0
I0
tp1417
sg21
I0
sg17
g18
(I1500
I900
I50
I50
tp1418
Rp1419
sg24
Nsg25
I0
sg26
I0
sg27
I0
sbag1
(g2
g3
Ntp1420
Rp1421
(dp1422
g7
I00
sg8
I0
sg10
Nsg11
I00
sg12
I0
sg13
S'img/sand.png'
p1423
sg15
g1374
sg22
(I0
I0
tp1424
sg21
I0
sg17
g18
(I1500
I900
I50
I50
tp1425
Rp1426
sg24
Nsg25
I0
sg26
I0
sg27
I0
sbag1
(g2
g3
Ntp1427
Rp1428
(dp1429
g7
I00
sg8
I0
sg10
Nsg11
I00
sg12
I0
sg13
S'img/sand.png'
p1430
sg15
g1374
sg22
(I0
I0
tp1431
sg21
I0
sg17
g18
(I1500
I900
I50
I50
tp1432
Rp1433
sg24
Nsg25
I0
sg26
I0
sg27
I0
sbag1
(g2
g3
Ntp1434
Rp1435
(dp1436
g7
I00
sg8
I0
sg10
Nsg11
I00
sg12
I0
sg13
S'img/sand.png'
p1437
sg15
g1374
sg22
(I0
I0
tp1438
sg21
I0
sg17
g18
(I1500
I900
I50
I50
tp1439
Rp1440
sg24
Nsg25
I0
sg26
I0
sg27
I0
sbag1
(g2
g3
Ntp1441
Rp1442
(dp1443
g7
I00
sg8
I0
sg10
Nsg11
I00
sg12
I0
sg13
S'img/sand.png'
p1444
sg15
g1374
sg22
(I0
I0
tp1445
sg21
I0
sg17
g18
(I1500
I900
I50
I50
tp1446
Rp1447
sg24
Nsg25
I0
sg26
I0
sg27
I0
sba.