(lp0
(lp1
I0
aI200
aI-50
aS'sand.png'
p2
aI00
aa(lp3
I0
aI-100
aI-50
ag2
aI00
aa(lp4
I0
aI200
aI150
ag2
aI00
aa(lp5
I0
aI-250
aI100
ag2
aI00
aa(lp6
I2
aI-250
aI-50
aS'stairsBroken.png'
p7
aI00
aa(lp8
I1
aI200
aI-100
aS'wall.png'
p9
aI01
aa(lp10
I1
aI150
aI-100
ag9
aI01
aa(lp11
I1
aI100
aI-100
ag9
aI01
aa(lp12
I1
aI50
aI-100
ag9
aI01
aa(lp13
I1
aI0
aI-100
ag9
aI01
aa(lp14
I1
aI-50
aI-100
ag9
aI01
aa(lp15
I1
aI-100
aI-100
ag9
aI01
aa(lp16
I1
aI-150
aI-100
ag9
aI01
aa(lp17
I1
aI-200
aI-100
ag9
aI01
aa(lp18
I1
aI-250
aI-100
ag9
aI01
aa(lp19
I1
aI-300
aI-100
ag9
aI01
aa(lp20
I1
aI-300
aI-50
ag9
aI01
aa(lp21
I1
aI-300
aI0
ag9
aI01
aa(lp22
I1
aI-300
aI50
ag9
aI01
aa(lp23
I1
aI-300
aI100
ag9
aI01
aa(lp24
I1
aI-300
aI150
ag9
aI01
aa(lp25
I0
aI0
aI150
ag2
aI00
aa(lp26
I0
aI0
aI-50
ag2
aI00
aa(lp27
I0
aI-50
aI-50
ag2
aI00
aa(lp28
I0
aI-100
aI150
ag2
aI00
aa(lp29
I0
aI-150
aI150
ag2
aI00
aa(lp30
I0
aI-200
aI150
ag2
aI00
aa(lp31
I0
aI-200
aI-50
ag2
aI00
aa(lp32
I0
aI250
aI-50
ag2
aI00
aa(lp33
I0
aI250
aI150
ag2
aI00
aa(lp34
I1
aI250
aI-100
ag9
aI01
aa(lp35
I1
aI300
aI-100
ag9
aI01
aa(lp36
I0
aI300
aI0
ag2
aI00
aa(lp37
I0
aI300
aI-50
ag2
aI00
aa(lp38
I1
aI350
aI150
ag9
aI01
aa(lp39
I1
aI350
aI100
ag9
aI01
aa(lp40
I1
aI350
aI50
ag9
aI01
aa(lp41
I1
aI350
aI0
ag9
aI01
aa(lp42
I1
aI350
aI-50
ag9
aI01
aa(lp43
I1
aI350
aI-100
ag9
aI01
aa(lp44
I1
aI350
aI200
ag9
aI01
aa(lp45
I1
aI300
aI200
ag9
aI01
aa(lp46
I1
aI250
aI200
ag9
aI01
aa(lp47
I1
aI200
aI200
ag9
aI01
aa(lp48
I1
aI150
aI200
ag9
aI01
aa(lp49
I1
aI100
aI200
ag9
aI01
aa(lp50
I1
aI50
aI200
ag9
aI01
aa(lp51
I1
aI0
aI200
ag9
aI01
aa(lp52
I1
aI-50
aI200
ag9
aI01
aa(lp53
I1
aI-100
aI200
ag9
aI01
aa(lp54
I1
aI-150
aI200
ag9
aI01
aa(lp55
I1
aI-200
aI200
ag9
aI01
aa(lp56
I1
aI-250
aI200
ag9
aI01
aa(lp57
I1
aI-300
aI200
ag9
aI01
aa(lp58
I0
aI-50
aI150
ag2
aI00
aa(lp59
I0
aI250
aI0
ag2
aI00
aa(lp60
I0
aI200
aI0
ag2
aI00
aa(lp61
I0
aI150
aI0
ag2
aI00
aa(lp62
I0
aI100
aI0
ag2
aI00
aa(lp63
I0
aI50
aI0
ag2
aI00
aa(lp64
I0
aI0
aI0
ag2
aI00
aa(lp65
I0
aI-200
aI0
ag2
aI00
aa(lp66
I0
aI-200
aI100
ag2
aI00
aa(lp67
I0
aI-150
aI100
ag2
aI00
aa(lp68
I0
aI-100
aI100
ag2
aI00
aa(lp69
I0
aI-50
aI100
ag2
aI00
aa(lp70
I0
aI0
aI100
ag2
aI00
aa(lp71
I0
aI50
aI100
ag2
aI00
aa(lp72
I0
aI100
aI100
ag2
aI00
aa(lp73
I0
aI150
aI100
ag2
aI00
aa(lp74
I0
aI200
aI100
ag2
aI00
aa(lp75
I0
aI250
aI100
ag2
aI00
aa(lp76
I0
aI300
aI100
ag2
aI00
aa(lp77
I0
aI-250
aI0
ag2
aI00
aa(lp78
I1
aI-250
aI50
ag9
aI01
aa(lp79
I1
aI-200
aI50
ag9
aI01
aa(lp80
I0
aI-50
aI0
ag2
aI00
aa(lp81
I3
aI-250
aI150
aS'stairsDown.png'
p82
aI00
aa(lp83
I0
aI300
aI150
ag2
aI00
aa(lp84
I1
aI-100
aI50
ag9
aI01
aa(lp85
I1
aI-50
aI50
ag9
aI01
aa(lp86
I1
aI0
aI50
ag9
aI01
aa(lp87
I1
aI50
aI50
ag9
aI01
aa(lp88
I1
aI100
aI50
ag9
aI01
aa(lp89
I1
aI150
aI50
ag9
aI01
aa(lp90
I1
aI200
aI50
ag9
aI01
aa(lp91
I1
aI250
aI50
ag9
aI01
aa(lp92
I1
aI300
aI50
ag9
aI01
aa(lp93
I0
aI-150
aI-50
aS'sand.png'
p94
aI00
aa(lp95
I0
aI-150
aI0
ag94
aI00
aa(lp96
I0
aI-100
aI0
ag94
aI00
aa(lp97
I7
aI-150
aI50
aS'door_closed1.png'
p98
aI01
aa(lp99
I4
aI150
aI-50
aS'torch.png'
p100
aI00
aa(lp101
I4
aI100
aI-50
ag100
aI00
aa(lp102
I4
aI50
aI-50
ag100
aI00
aa(lp103
I4
aI50
aI150
ag100
aI00
aa(lp104
I4
aI100
aI150
ag100
aI00
aa(lp105
I4
aI150
aI150
ag100
aI00
aa(lp106
cpygame
__rect_constructor
p107
(I-250
I-50
I27
I46
tp108
Rp109
aa.