(lp0
(lp1
I2
aI-250
aI-50
aS'stairsBroken.png'
p2
aI00
aa(lp3
I1
aI-200
aI-100
aS'wall.png'
p4
aI01
aa(lp5
I1
aI-250
aI-100
ag4
aI01
aa(lp6
I1
aI-300
aI-100
ag4
aI01
aa(lp7
I1
aI-300
aI-50
ag4
aI01
aa(lp8
I1
aI-300
aI0
ag4
aI01
aa(lp9
I1
aI-300
aI50
ag4
aI01
aa(lp10
I0
aI-200
aI-50
aS'sand.png'
p11
aI00
aa(lp12
I0
aI-200
aI0
ag11
aI00
aa(lp13
I0
aI-250
aI0
ag11
aI00
aa(lp14
I1
aI-250
aI50
ag4
aI01
aa(lp15
I1
aI-200
aI50
ag4
aI01
aa(lp16
I0
aI-150
aI-50
aS'sand.png'
p17
aI00
aa(lp18
I0
aI-150
aI0
ag17
aI00
aa(lp19
I0
aI-100
aI-50
ag11
aI00
aa(lp20
I0
aI-100
aI0
ag11
aI00
aa(lp21
I0
aI-50
aI0
ag11
aI00
aa(lp22
I1
aI-150
aI-100
ag4
aI01
aa(lp23
I1
aI-100
aI-100
ag4
aI01
aa(lp24
I1
aI-50
aI-100
ag4
aI01
aa(lp25
I1
aI0
aI50
ag4
aI01
aa(lp26
I1
aI0
aI100
ag4
aI01
aa(lp27
I1
aI0
aI150
ag4
aI01
aa(lp28
I1
aI0
aI200
ag4
aI01
aa(lp29
I1
aI-150
aI50
ag4
aI01
aa(lp30
I1
aI-100
aI50
ag4
aI01
aa(lp31
I0
aI-50
aI-50
ag11
aI00
aa(lp32
I0
aI0
aI-50
ag11
aI00
aa(lp33
I0
aI0
aI0
ag11
aI00
aa(lp34
I0
aI100
aI0
ag11
aI00
aa(lp35
I0
aI150
aI0
ag11
aI00
aa(lp36
I0
aI150
aI-50
ag11
aI00
aa(lp37
I0
aI150
aI-150
ag11
aI00
aa(lp38
I0
aI100
aI-150
ag11
aI00
aa(lp39
I1
aI0
aI-100
ag4
aI01
aa(lp40
I1
aI0
aI-150
ag4
aI01
aa(lp41
I1
aI0
aI-200
ag4
aI01
aa(lp42
I1
aI100
aI50
ag4
aI01
aa(lp43
I1
aI50
aI50
ag4
aI01
aa(lp44
I0
aI50
aI-150
ag11
aI00
aa(lp45
I0
aI50
aI-200
ag11
aI00
aa(lp46
I0
aI100
aI-200
ag11
aI00
aa(lp47
I0
aI150
aI-200
ag11
aI00
aa(lp48
I0
aI200
aI-200
ag11
aI00
aa(lp49
I0
aI200
aI-150
ag11
aI00
aa(lp50
I0
aI200
aI-50
ag11
aI00
aa(lp51
I0
aI200
aI0
ag11
aI00
aa(lp52
I1
aI250
aI50
ag4
aI01
aa(lp53
I1
aI250
aI0
ag4
aI01
aa(lp54
I1
aI250
aI-100
ag4
aI01
aa(lp55
I1
aI250
aI-150
ag4
aI01
aa(lp56
I1
aI250
aI-200
ag4
aI01
aa(lp57
I1
aI250
aI-250
ag4
aI01
aa(lp58
I1
aI200
aI-250
ag4
aI01
aa(lp59
I1
aI150
aI-250
ag4
aI01
aa(lp60
I1
aI100
aI-250
ag4
aI01
aa(lp61
I1
aI50
aI-250
ag4
aI01
aa(lp62
I1
aI0
aI-250
ag4
aI01
aa(lp63
I7
aI150
aI-100
aS'door_closed1.png'
p64
aI01
aa(lp65
I1
aI50
aI-100
ag4
aI01
aa(lp66
I1
aI100
aI-100
ag4
aI01
aa(lp67
I1
aI200
aI-100
ag4
aI01
aa(lp68
I1
aI50
aI0
ag4
aI01
aa(lp69
I1
aI100
aI250
ag4
aI01
aa(lp70
I1
aI150
aI250
ag4
aI01
aa(lp71
I1
aI200
aI250
ag4
aI01
aa(lp72
I1
aI250
aI250
ag4
aI01
aa(lp73
I1
aI250
aI200
ag4
aI01
aa(lp74
I1
aI250
aI150
ag4
aI01
aa(lp75
I1
aI250
aI100
ag4
aI01
aa(lp76
I0
aI150
aI100
ag11
aI00
aa(lp77
I0
aI200
aI100
ag11
aI00
aa(lp78
I7
aI150
aI50
ag64
aI01
aa(lp79
I1
aI200
aI50
ag4
aI01
aa(lp80
I10
aI250
aI-50
aS'door_closedLock2.png'
p81
aI01
aa(lp82
I1
aI-50
aI50
ag4
aI01
aa(lp83
I0
aI100
aI-50
ag11
aI00
aa(lp84
I8
aI50
aI-50
aS'door_closed2.png'
p85
aI01
aa(lp86
I0
aI100
aI300
ag11
aI00
aa(lp87
I0
aI150
aI300
ag11
aI00
aa(lp88
I0
aI200
aI300
ag11
aI00
aa(lp89
I0
aI250
aI300
ag11
aI00
aa(lp90
I0
aI300
aI300
ag11
aI00
aa(lp91
I0
aI300
aI250
ag11
aI00
aa(lp92
I0
aI300
aI200
ag11
aI00
aa(lp93
I0
aI300
aI150
ag11
aI00
aa(lp94
I0
aI300
aI50
ag11
aI00
aa(lp95
I0
aI300
aI0
ag11
aI00
aa(lp96
I0
aI300
aI-50
ag11
aI00
aa(lp97
I1
aI300
aI-100
ag4
aI01
aa(lp98
I1
aI350
aI-100
ag4
aI01
aa(lp99
I1
aI350
aI-50
ag4
aI01
aa(lp100
I1
aI350
aI0
ag4
aI01
aa(lp101
I1
aI350
aI50
ag4
aI01
aa(lp102
I1
aI350
aI100
ag4
aI01
aa(lp103
I1
aI350
aI150
ag4
aI01
aa(lp104
I1
aI350
aI200
ag4
aI01
aa(lp105
I1
aI350
aI250
ag4
aI01
aa(lp106
I1
aI350
aI300
ag4
aI01
aa(lp107
I1
aI300
aI350
ag4
aI01
aa(lp108
I1
aI200
aI350
ag4
aI01
aa(lp109
I1
aI250
aI350
ag4
aI01
aa(lp110
I1
aI350
aI350
ag4
aI01
aa(lp111
I1
aI150
aI350
ag4
aI01
aa(lp112
I1
aI100
aI350
ag4
aI01
aa(lp113
I1
aI0
aI250
ag4
aI01
aa(lp114
I1
aI50
aI350
ag4
aI01
aa(lp115
I1
aI0
aI350
ag4
aI01
aa(lp116
I1
aI0
aI300
ag4
aI01
aa(lp117
I3
aI50
aI300
aS'stairsDown.png'
p118
aI00
aa(lp119
I1
aI50
aI250
ag4
aI01
aa(lp120
I0
aI150
aI200
ag11
aI00
aa(lp121
I0
aI50
aI150
ag11
aI00
aa(lp122
I0
aI50
aI200
ag11
aI00
aa(lp123
I0
aI300
aI100
ag11
aI00
aa(lp124
I0
aI50
aI100
ag11
aI00
aa(lp125
I0
aI100
aI100
ag11
aI00
aa(lp126
I0
aI150
aI150
ag11
aI00
aa(lp127
I0
aI200
aI150
ag11
aI00
aa(lp128
I0
aI200
aI200
ag11
aI00
aa(lp129
I0
aI100
aI200
aS'sand.png'
p130
aI00
aa(lp131
I0
aI100
aI150
ag130
aI00
aa(lp132
cpygame
__rect_constructor
p133
(I-250
I-50
I27
I46
tp134
Rp135
aa.