(lp0
(lp1
I0
aI500
aI100
aS'sand.png'
p2
aI00
aa(lp3
I0
aI500
aI150
ag2
aI00
aa(lp4
I0
aI450
aI150
ag2
aI00
aa(lp5
I0
aI400
aI100
ag2
aI00
aa(lp6
I0
aI300
aI50
ag2
aI00
aa(lp7
I0
aI400
aI0
ag2
aI00
aa(lp8
I0
aI450
aI0
ag2
aI00
aa(lp9
I0
aI450
aI100
ag2
aI00
aa(lp10
I0
aI400
aI150
ag2
aI00
aa(lp11
I0
aI100
aI100
ag2
aI00
aa(lp12
I0
aI200
aI100
ag2
aI00
aa(lp13
I0
aI250
aI0
ag2
aI00
aa(lp14
I0
aI150
aI50
ag2
aI00
aa(lp15
I0
aI100
aI50
ag2
aI00
aa(lp16
I0
aI300
aI0
ag2
aI00
aa(lp17
I0
aI200
aI50
ag2
aI00
aa(lp18
I0
aI200
aI0
ag2
aI00
aa(lp19
I0
aI150
aI0
ag2
aI00
aa(lp20
I0
aI100
aI0
ag2
aI00
aa(lp21
I0
aI500
aI0
ag2
aI00
aa(lp22
I0
aI500
aI-50
ag2
aI00
aa(lp23
I0
aI600
aI-50
ag2
aI00
aa(lp24
I0
aI600
aI0
ag2
aI00
aa(lp25
I0
aI600
aI150
ag2
aI00
aa(lp26
I0
aI300
aI200
ag2
aI00
aa(lp27
I0
aI250
aI200
ag2
aI00
aa(lp28
I0
aI0
aI-50
ag2
aI00
aa(lp29
I0
aI0
aI0
ag2
aI00
aa(lp30
I0
aI-100
aI-50
ag2
aI00
aa(lp31
I0
aI-50
aI-50
ag2
aI00
aa(lp32
I0
aI-50
aI100
ag2
aI00
aa(lp33
I0
aI-50
aI50
ag2
aI00
aa(lp34
I0
aI-50
aI0
ag2
aI00
aa(lp35
I0
aI-100
aI0
ag2
aI00
aa(lp36
I0
aI-100
aI50
ag2
aI00
aa(lp37
I0
aI-100
aI100
ag2
aI00
aa(lp38
I0
aI650
aI150
ag2
aI00
aa(lp39
I0
aI650
aI100
ag2
aI00
aa(lp40
I0
aI650
aI50
ag2
aI00
aa(lp41
I0
aI650
aI0
ag2
aI00
aa(lp42
I0
aI650
aI-50
ag2
aI00
aa(lp43
I0
aI650
aI-100
ag2
aI00
aa(lp44
I3
aI650
aI-150
aS'stairsDown.png'
p45
aI00
aa(lp46
I1
aI-150
aI-50
aS'wall.png'
p47
aI01
aa(lp48
I1
aI-150
aI0
ag47
aI01
aa(lp49
I1
aI-150
aI50
ag47
aI01
aa(lp50
I1
aI-150
aI100
ag47
aI01
aa(lp51
I1
aI700
aI150
ag47
aI01
aa(lp52
I1
aI700
aI100
ag47
aI01
aa(lp53
I1
aI700
aI50
ag47
aI01
aa(lp54
I1
aI700
aI0
ag47
aI01
aa(lp55
I1
aI700
aI-50
ag47
aI01
aa(lp56
I1
aI700
aI-100
ag47
aI01
aa(lp57
I1
aI700
aI-150
ag47
aI01
aa(lp58
I1
aI700
aI-200
ag47
aI01
aa(lp59
I1
aI350
aI200
ag47
aI01
aa(lp60
I0
aI250
aI50
aS'sand.png'
p61
aI00
aa(lp62
I0
aI150
aI100
aS'sand.png'
p63
aI00
aa(lp64
I0
aI200
aI150
ag2
aI00
aa(lp65
I0
aI150
aI150
ag2
aI00
aa(lp66
I0
aI50
aI150
ag2
aI00
aa(lp67
I0
aI50
aI100
ag2
aI00
aa(lp68
I0
aI50
aI50
ag2
aI00
aa(lp69
I0
aI100
aI-50
ag2
aI00
aa(lp70
I0
aI150
aI-50
ag2
aI00
aa(lp71
I0
aI200
aI-50
ag2
aI00
aa(lp72
I0
aI250
aI-50
ag2
aI00
aa(lp73
I0
aI300
aI-50
ag2
aI00
aa(lp74
I0
aI450
aI-50
ag2
aI00
aa(lp75
I0
aI400
aI-50
ag2
aI00
aa(lp76
I0
aI350
aI100
ag2
aI00
aa(lp77
I0
aI300
aI100
ag2
aI00
aa(lp78
I0
aI250
aI100
ag2
aI00
aa(lp79
I0
aI250
aI150
ag2
aI00
aa(lp80
I0
aI300
aI150
ag2
aI00
aa(lp81
I0
aI350
aI50
ag2
aI00
aa(lp82
I0
aI400
aI50
ag2
aI00
aa(lp83
I0
aI450
aI50
ag2
aI00
aa(lp84
I0
aI500
aI50
ag2
aI00
aa(lp85
I0
aI600
aI50
ag2
aI00
aa(lp86
I0
aI600
aI100
ag2
aI00
aa(lp87
I0
aI550
aI-50
ag2
aI00
aa(lp88
I0
aI550
aI0
ag2
aI00
aa(lp89
I0
aI550
aI50
ag2
aI00
aa(lp90
I0
aI550
aI100
ag2
aI00
aa(lp91
I0
aI550
aI150
ag2
aI00
aa(lp92
I0
aI350
aI0
ag2
aI00
aa(lp93
I0
aI50
aI-50
ag2
aI00
aa(lp94
I0
aI50
aI0
ag2
aI00
aa(lp95
I0
aI0
aI50
ag2
aI00
aa(lp96
I0
aI0
aI100
ag2
aI00
aa(lp97
I0
aI-50
aI150
ag2
aI00
aa(lp98
I0
aI0
aI150
ag2
aI00
aa(lp99
I0
aI350
aI150
ag2
aI00
aa(lp100
I0
aI350
aI-50
ag2
aI00
aa(lp101
I1
aI300
aI-100
ag47
aI01
aa(lp102
I1
aI250
aI-100
ag47
aI01
aa(lp103
I1
aI200
aI-100
ag47
aI01
aa(lp104
I1
aI150
aI-100
ag47
aI01
aa(lp105
I1
aI100
aI-100
ag47
aI01
aa(lp106
I1
aI50
aI-100
ag47
aI01
aa(lp107
I1
aI0
aI-100
ag47
aI01
aa(lp108
I1
aI-50
aI-100
ag47
aI01
aa(lp109
I1
aI-100
aI-100
ag47
aI01
aa(lp110
I1
aI-150
aI-100
ag47
aI01
aa(lp111
I1
aI-150
aI150
ag47
aI01
aa(lp112
I1
aI-150
aI200
ag47
aI01
aa(lp113
I1
aI-100
aI200
ag47
aI01
aa(lp114
I1
aI-50
aI200
ag47
aI01
aa(lp115
I0
aI-100
aI150
ag2
aI00
aa(lp116
I1
aI400
aI200
ag47
aI01
aa(lp117
I1
aI450
aI200
ag47
aI01
aa(lp118
I1
aI500
aI200
ag47
aI01
aa(lp119
I1
aI550
aI200
ag47
aI01
aa(lp120
I1
aI600
aI200
ag47
aI01
aa(lp121
I1
aI650
aI200
ag47
aI01
aa(lp122
I1
aI700
aI200
ag47
aI01
aa(lp123
I1
aI350
aI-100
ag47
aI01
aa(lp124
I1
aI400
aI-100
ag47
aI01
aa(lp125
I1
aI450
aI-100
ag47
aI01
aa(lp126
I1
aI500
aI-100
ag47
aI01
aa(lp127
I1
aI550
aI-100
ag47
aI01
aa(lp128
I1
aI600
aI-150
ag47
aI01
aa(lp129
I1
aI600
aI-200
ag47
aI01
aa(lp130
I1
aI650
aI-200
ag47
aI01
aa(lp131
I1
aI600
aI-100
ag47
aI01
aa(lp132
I2
aI200
aI200
aS'stairsBroken.png'
p133
aI00
aa(lp134
I0
aI100
aI150
ag2
aI00
aa(lp135
I1
aI0
aI200
ag47
aI01
aa(lp136
I1
aI50
aI200
ag47
aI01
aa(lp137
I1
aI100
aI200
ag47
aI01
aa(lp138
I1
aI150
aI200
ag47
aI01
aa(lp139
I102
aS'spikeblock.png'
p140
aI350
aI132
aa(lp141
I103
ag140
aI29
aI50
aa(lp142
I102
ag140
aI600
aI21
aa(lp143
cpygame
__rect_constructor
p144
(I-50
I250
I27
I46
tp145
Rp146
aa.