(lp0
(lp1
I0
aI300
aI150
aS'sand.png'
p2
aI00
aa(lp3
I0
aI250
aI150
ag2
aI00
aa(lp4
I0
aI0
aI100
ag2
aI00
aa(lp5
I0
aI-50
aI50
ag2
aI00
aa(lp6
I0
aI-100
aI-100
ag2
aI00
aa(lp7
I0
aI-100
aI-150
ag2
aI00
aa(lp8
I0
aI-50
aI-150
ag2
aI00
aa(lp9
I0
aI0
aI-150
ag2
aI00
aa(lp10
I0
aI150
aI-150
ag2
aI00
aa(lp11
I0
aI300
aI-50
ag2
aI00
aa(lp12
I0
aI300
aI0
ag2
aI00
aa(lp13
I0
aI300
aI50
ag2
aI00
aa(lp14
I0
aI250
aI50
ag2
aI00
aa(lp15
I0
aI150
aI-100
ag2
aI00
aa(lp16
I0
aI200
aI-150
ag2
aI00
aa(lp17
I0
aI250
aI-150
ag2
aI00
aa(lp18
I0
aI300
aI100
ag2
aI00
aa(lp19
I0
aI250
aI100
ag2
aI00
aa(lp20
I0
aI200
aI100
ag2
aI00
aa(lp21
I0
aI250
aI0
ag2
aI00
aa(lp22
I0
aI150
aI50
ag2
aI00
aa(lp23
I0
aI250
aI-50
ag2
aI00
aa(lp24
I0
aI150
aI-50
ag2
aI00
aa(lp25
I0
aI200
aI-50
ag2
aI00
aa(lp26
I0
aI200
aI-100
ag2
aI00
aa(lp27
I0
aI300
aI-150
ag2
aI00
aa(lp28
I0
aI350
aI-150
ag2
aI00
aa(lp29
I0
aI350
aI-100
ag2
aI00
aa(lp30
I0
aI350
aI-50
ag2
aI00
aa(lp31
I0
aI350
aI0
ag2
aI00
aa(lp32
I0
aI350
aI50
ag2
aI00
aa(lp33
I0
aI350
aI100
ag2
aI00
aa(lp34
I0
aI350
aI150
ag2
aI00
aa(lp35
I0
aI300
aI200
ag2
aI00
aa(lp36
I0
aI250
aI200
ag2
aI00
aa(lp37
I0
aI200
aI200
ag2
aI00
aa(lp38
I0
aI150
aI200
ag2
aI00
aa(lp39
I0
aI0
aI200
ag2
aI00
aa(lp40
I0
aI-200
aI200
ag2
aI00
aa(lp41
I0
aI-100
aI200
ag2
aI00
aa(lp42
I0
aI-150
aI200
ag2
aI00
aa(lp43
I0
aI-200
aI150
ag2
aI00
aa(lp44
I0
aI-150
aI150
ag2
aI00
aa(lp45
I0
aI-200
aI0
ag2
aI00
aa(lp46
I0
aI-200
aI50
ag2
aI00
aa(lp47
I0
aI-200
aI100
ag2
aI00
aa(lp48
I0
aI-150
aI100
ag2
aI00
aa(lp49
I0
aI-150
aI50
ag2
aI00
aa(lp50
I0
aI-100
aI50
ag2
aI00
aa(lp51
I0
aI-100
aI100
ag2
aI00
aa(lp52
I0
aI-50
aI200
ag2
aI00
aa(lp53
I0
aI-50
aI100
ag2
aI00
aa(lp54
I0
aI-50
aI150
ag2
aI00
aa(lp55
I0
aI0
aI150
ag2
aI00
aa(lp56
I0
aI200
aI150
ag2
aI00
aa(lp57
I0
aI150
aI150
ag2
aI00
aa(lp58
I0
aI150
aI100
ag2
aI00
aa(lp59
I0
aI-100
aI-50
ag2
aI00
aa(lp60
I0
aI-50
aI-50
ag2
aI00
aa(lp61
I0
aI-50
aI-100
ag2
aI00
aa(lp62
I0
aI0
aI-100
ag2
aI00
aa(lp63
I0
aI0
aI-50
ag2
aI00
aa(lp64
I0
aI0
aI0
ag2
aI00
aa(lp65
I0
aI-50
aI0
ag2
aI00
aa(lp66
I0
aI-100
aI0
ag2
aI00
aa(lp67
I0
aI-150
aI0
ag2
aI00
aa(lp68
I0
aI-150
aI-50
ag2
aI00
aa(lp69
I0
aI-200
aI-50
ag2
aI00
aa(lp70
I0
aI-200
aI-100
ag2
aI00
aa(lp71
I0
aI-150
aI-150
ag2
aI00
aa(lp72
I1
aI100
aI-150
aS'wall.png'
p73
aI01
aa(lp74
I1
aI100
aI-100
ag73
aI01
aa(lp75
I1
aI100
aI150
ag73
aI01
aa(lp76
I1
aI100
aI200
ag73
aI01
aa(lp77
I1
aI50
aI200
ag73
aI01
aa(lp78
I1
aI50
aI150
ag73
aI01
aa(lp79
I1
aI50
aI100
ag73
aI01
aa(lp80
I1
aI100
aI100
ag73
aI01
aa(lp81
I1
aI100
aI-50
ag73
aI01
aa(lp82
I1
aI50
aI-50
ag73
aI01
aa(lp83
I1
aI50
aI-100
ag73
aI01
aa(lp84
I1
aI50
aI-150
ag73
aI01
aa(lp85
I1
aI0
aI-200
ag73
aI01
aa(lp86
I1
aI-50
aI-200
ag73
aI01
aa(lp87
I1
aI-100
aI-200
ag73
aI01
aa(lp88
I1
aI-150
aI-200
ag73
aI01
aa(lp89
I1
aI-200
aI-200
ag73
aI01
aa(lp90
I1
aI-250
aI-200
ag73
aI01
aa(lp91
I1
aI-250
aI-150
ag73
aI01
aa(lp92
I1
aI-250
aI-100
ag73
aI01
aa(lp93
I1
aI-250
aI-50
ag73
aI01
aa(lp94
I1
aI-250
aI0
ag73
aI01
aa(lp95
I1
aI-250
aI50
ag73
aI01
aa(lp96
I1
aI-250
aI100
ag73
aI01
aa(lp97
I1
aI-250
aI150
ag73
aI01
aa(lp98
I1
aI-250
aI200
ag73
aI01
aa(lp99
I1
aI-250
aI250
ag73
aI01
aa(lp100
I1
aI-200
aI250
ag73
aI01
aa(lp101
I1
aI-150
aI250
ag73
aI01
aa(lp102
I1
aI-100
aI250
ag73
aI01
aa(lp103
I1
aI-50
aI250
ag73
aI01
aa(lp104
I1
aI0
aI250
ag73
aI01
aa(lp105
I1
aI50
aI250
ag73
aI01
aa(lp106
I1
aI100
aI250
ag73
aI01
aa(lp107
I1
aI150
aI250
ag73
aI01
aa(lp108
I1
aI200
aI250
ag73
aI01
aa(lp109
I1
aI250
aI250
ag73
aI01
aa(lp110
I1
aI300
aI250
ag73
aI01
aa(lp111
I1
aI350
aI250
ag73
aI01
aa(lp112
I1
aI400
aI250
ag73
aI01
aa(lp113
I1
aI400
aI200
ag73
aI01
aa(lp114
I1
aI400
aI150
ag73
aI01
aa(lp115
I1
aI400
aI100
ag73
aI01
aa(lp116
I1
aI400
aI50
ag73
aI01
aa(lp117
I1
aI400
aI0
ag73
aI01
aa(lp118
I1
aI400
aI-50
ag73
aI01
aa(lp119
I1
aI400
aI-100
ag73
aI01
aa(lp120
I1
aI400
aI-150
ag73
aI01
aa(lp121
I1
aI400
aI-200
ag73
aI01
aa(lp122
I1
aI350
aI-200
ag73
aI01
aa(lp123
I1
aI300
aI-200
ag73
aI01
aa(lp124
I1
aI250
aI-200
ag73
aI01
aa(lp125
I1
aI200
aI-200
ag73
aI01
aa(lp126
I1
aI150
aI-200
ag73
aI01
aa(lp127
I1
aI100
aI-200
ag73
aI01
aa(lp128
I1
aI50
aI-200
ag73
aI01
aa(lp129
I0
aI200
aI0
ag2
aI00
aa(lp130
I0
aI200
aI50
ag2
aI00
aa(lp131
I2
aI-200
aI-150
aS'stairsBroken.png'
p132
aI00
aa(lp133
I0
aI-150
aI-100
ag2
aI00
aa(lp134
I3
aI350
aI200
aS'stairsDown.png'
p135
aI00
aa(lp136
I0
aI300
aI-100
ag2
aI00
aa(lp137
I0
aI50
aI0
ag2
aI00
aa(lp138
I0
aI150
aI0
ag2
aI00
aa(lp139
I0
aI100
aI0
ag2
aI00
aa(lp140
I0
aI100
aI50
ag2
aI00
aa(lp141
I0
aI50
aI50
ag2
aI00
aa(lp142
I0
aI0
aI50
ag2
aI00
aa(lp143
I4
aI-100
aI150
aS'torch.png'
p144
aI00
aa(lp145
I4
aI250
aI-100
ag144
aI00
aa(lp146
cpygame
__rect_constructor
p147
(I150
I0
I27
I46
tp148
Rp149
aa.