(lp0
(lp1
I0
aI150
aI50
aS'sand.png'
p2
aI00
aa(lp3
I0
aI100
aI50
ag2
aI00
aa(lp4
I0
aI50
aI50
ag2
aI00
aa(lp5
I0
aI0
aI50
ag2
aI00
aa(lp6
I0
aI50
aI150
ag2
aI00
aa(lp7
I0
aI300
aI-100
ag2
aI00
aa(lp8
I0
aI150
aI-100
ag2
aI00
aa(lp9
I0
aI300
aI-50
ag2
aI00
aa(lp10
I0
aI0
aI-100
ag2
aI00
aa(lp11
I0
aI-50
aI150
ag2
aI00
aa(lp12
I0
aI250
aI150
ag2
aI00
aa(lp13
I0
aI300
aI150
ag2
aI00
aa(lp14
I0
aI350
aI150
ag2
aI00
aa(lp15
I0
aI400
aI50
ag2
aI00
aa(lp16
I0
aI400
aI0
ag2
aI00
aa(lp17
I0
aI400
aI-50
ag2
aI00
aa(lp18
I0
aI300
aI-150
ag2
aI00
aa(lp19
I0
aI200
aI-150
ag2
aI00
aa(lp20
I0
aI150
aI-150
ag2
aI00
aa(lp21
I0
aI100
aI-150
ag2
aI00
aa(lp22
I0
aI0
aI150
ag2
aI00
aa(lp23
I0
aI0
aI200
ag2
aI00
aa(lp24
I3
aI50
aI200
aS'stairsDown.png'
p25
aI00
aa(lp26
I1
aI400
aI-200
aS'wall.png'
p27
aI01
aa(lp28
I1
aI350
aI-200
ag27
aI01
aa(lp29
I1
aI300
aI-200
ag27
aI01
aa(lp30
I1
aI250
aI-200
ag27
aI01
aa(lp31
I1
aI200
aI-200
ag27
aI01
aa(lp32
I1
aI150
aI-200
ag27
aI01
aa(lp33
I1
aI100
aI-200
ag27
aI01
aa(lp34
I1
aI50
aI-200
ag27
aI01
aa(lp35
I1
aI-150
aI0
ag27
aI01
aa(lp36
I1
aI-150
aI50
ag27
aI01
aa(lp37
I1
aI0
aI300
ag27
aI01
aa(lp38
I1
aI50
aI300
ag27
aI01
aa(lp39
I1
aI100
aI300
ag27
aI01
aa(lp40
I1
aI150
aI300
ag27
aI01
aa(lp41
I1
aI200
aI300
ag27
aI01
aa(lp42
I1
aI450
aI150
ag27
aI01
aa(lp43
I1
aI450
aI100
ag27
aI01
aa(lp44
I1
aI450
aI50
ag27
aI01
aa(lp45
I1
aI450
aI0
ag27
aI01
aa(lp46
I1
aI450
aI-50
ag27
aI01
aa(lp47
I1
aI450
aI-150
ag27
aI01
aa(lp48
I0
aI400
aI-100
ag2
aI00
aa(lp49
I0
aI400
aI-150
ag2
aI00
aa(lp50
I0
aI300
aI50
ag2
aI00
aa(lp51
I0
aI250
aI50
ag2
aI00
aa(lp52
I0
aI200
aI50
ag2
aI00
aa(lp53
I0
aI200
aI0
ag2
aI00
aa(lp54
I0
aI150
aI0
ag2
aI00
aa(lp55
I0
aI100
aI0
ag2
aI00
aa(lp56
I0
aI50
aI0
ag2
aI00
aa(lp57
I0
aI0
aI0
ag2
aI00
aa(lp58
I0
aI0
aI-50
ag2
aI00
aa(lp59
I0
aI50
aI-50
ag2
aI00
aa(lp60
I0
aI300
aI0
ag2
aI00
aa(lp61
I0
aI250
aI0
ag2
aI00
aa(lp62
I0
aI150
aI-50
ag2
aI00
aa(lp63
I0
aI100
aI-50
ag2
aI00
aa(lp64
I0
aI100
aI-100
ag2
aI00
aa(lp65
I0
aI50
aI-100
ag2
aI00
aa(lp66
I0
aI50
aI-150
ag2
aI00
aa(lp67
I0
aI0
aI-150
ag2
aI00
aa(lp68
I0
aI-100
aI0
ag2
aI00
aa(lp69
I0
aI-100
aI-150
ag2
aI00
aa(lp70
I0
aI-100
aI-100
ag2
aI00
aa(lp71
I0
aI-100
aI-50
ag2
aI00
aa(lp72
I0
aI-100
aI50
ag2
aI00
aa(lp73
I0
aI-100
aI150
ag2
aI00
aa(lp74
I0
aI-100
aI200
ag2
aI00
aa(lp75
I0
aI-50
aI200
ag2
aI00
aa(lp76
I0
aI-50
aI250
ag2
aI00
aa(lp77
I0
aI0
aI250
ag2
aI00
aa(lp78
I0
aI50
aI250
ag2
aI00
aa(lp79
I0
aI100
aI250
ag2
aI00
aa(lp80
I0
aI200
aI250
ag2
aI00
aa(lp81
I0
aI250
aI250
ag2
aI00
aa(lp82
I0
aI300
aI200
ag2
aI00
aa(lp83
I0
aI350
aI200
ag2
aI00
aa(lp84
I0
aI400
aI150
ag2
aI00
aa(lp85
I0
aI400
aI200
ag2
aI00
aa(lp86
I0
aI400
aI250
ag2
aI00
aa(lp87
I0
aI300
aI250
ag2
aI00
aa(lp88
I0
aI350
aI250
ag2
aI00
aa(lp89
I1
aI450
aI200
ag27
aI01
aa(lp90
I1
aI450
aI250
ag27
aI01
aa(lp91
I1
aI450
aI300
ag27
aI01
aa(lp92
I1
aI400
aI300
ag27
aI01
aa(lp93
I1
aI350
aI300
ag27
aI01
aa(lp94
I1
aI300
aI300
ag27
aI01
aa(lp95
I1
aI250
aI300
ag27
aI01
aa(lp96
I1
aI-50
aI300
ag27
aI01
aa(lp97
I1
aI-100
aI300
ag27
aI01
aa(lp98
I1
aI-150
aI300
ag27
aI01
aa(lp99
I1
aI-150
aI250
ag27
aI01
aa(lp100
I1
aI-150
aI200
ag27
aI01
aa(lp101
I1
aI-150
aI150
ag27
aI01
aa(lp102
I1
aI-150
aI100
ag27
aI01
aa(lp103
I0
aI-100
aI250
ag2
aI00
aa(lp104
I1
aI-150
aI-50
ag27
aI01
aa(lp105
I1
aI-150
aI-100
ag27
aI01
aa(lp106
I1
aI-150
aI-150
ag27
aI01
aa(lp107
I1
aI-150
aI-200
ag27
aI01
aa(lp108
I1
aI-100
aI-200
ag27
aI01
aa(lp109
I1
aI-50
aI-200
ag27
aI01
aa(lp110
I1
aI0
aI-200
ag27
aI01
aa(lp111
I1
aI450
aI-200
ag27
aI01
aa(lp112
I0
aI100
aI150
ag2
aI00
aa(lp113
I0
aI100
aI200
ag2
aI00
aa(lp114
I0
aI200
aI-100
ag2
aI00
aa(lp115
I0
aI250
aI-150
ag2
aI00
aa(lp116
I0
aI250
aI-100
ag2
aI00
aa(lp117
I0
aI250
aI-50
ag2
aI00
aa(lp118
I0
aI200
aI-50
ag2
aI00
aa(lp119
I2
aI250
aI200
aS'stairsBroken.png'
p120
aI00
aa(lp121
I0
aI200
aI150
ag2
aI00
aa(lp122
I0
aI200
aI200
ag2
aI00
aa(lp123
I1
aI150
aI250
ag27
aI01
aa(lp124
I1
aI150
aI200
ag27
aI01
aa(lp125
I1
aI150
aI150
ag27
aI01
aa(lp126
I1
aI150
aI100
ag27
aI01
aa(lp127
I1
aI200
aI100
ag27
aI01
aa(lp128
I1
aI250
aI100
ag27
aI01
aa(lp129
I1
aI300
aI100
ag27
aI01
aa(lp130
I1
aI350
aI100
ag27
aI01
aa(lp131
I1
aI100
aI100
ag27
aI01
aa(lp132
I1
aI50
aI100
ag27
aI01
aa(lp133
I1
aI0
aI100
ag27
aI01
aa(lp134
I1
aI-50
aI100
ag27
aI01
aa(lp135
I1
aI-50
aI-150
ag27
aI01
aa(lp136
I1
aI-50
aI-100
ag27
aI01
aa(lp137
I1
aI-50
aI-50
ag27
aI01
aa(lp138
I1
aI-50
aI50
ag27
aI01
aa(lp139
I1
aI350
aI50
ag27
aI01
aa(lp140
I1
aI350
aI0
ag27
aI01
aa(lp141
I1
aI350
aI-50
ag27
aI01
aa(lp142
I1
aI350
aI-150
ag27
aI01
aa(lp143
I0
aI500
aI-100
ag2
aI00
aa(lp144
I1
aI500
aI-150
ag27
aI01
aa(lp145
I1
aI550
aI-150
ag27
aI01
aa(lp146
I1
aI550
aI-100
ag27
aI01
aa(lp147
I1
aI550
aI-50
ag27
aI01
aa(lp148
I1
aI550
aI0
ag27
aI01
aa(lp149
I1
aI550
aI50
ag27
aI01
aa(lp150
I1
aI500
aI150
ag27
aI01
aa(lp151
I1
aI550
aI150
ag27
aI01
aa(lp152
I1
aI600
aI150
ag27
aI01
aa(lp153
I1
aI600
aI-150
ag27
aI01
aa(lp154
I1
aI650
aI-150
ag27
aI01
aa(lp155
I1
aI700
aI-150
ag27
aI01
aa(lp156
I1
aI750
aI-150
ag27
aI01
aa(lp157
I1
aI800
aI-150
ag27
aI01
aa(lp158
I1
aI800
aI-100
ag27
aI01
aa(lp159
I1
aI800
aI-50
ag27
aI01
aa(lp160
I1
aI800
aI0
ag27
aI01
aa(lp161
I1
aI800
aI50
ag27
aI01
aa(lp162
I1
aI800
aI100
ag27
aI01
aa(lp163
I1
aI800
aI150
ag27
aI01
aa(lp164
I1
aI750
aI150
ag27
aI01
aa(lp165
I1
aI700
aI150
ag27
aI01
aa(lp166
I1
aI650
aI150
ag27
aI01
aa(lp167
I0
aI500
aI-50
ag2
aI00
aa(lp168
I0
aI500
aI0
ag2
aI00
aa(lp169
I0
aI500
aI50
ag2
aI00
aa(lp170
I0
aI500
aI100
ag2
aI00
aa(lp171
I0
aI600
aI100
ag2
aI00
aa(lp172
I0
aI650
aI100
ag2
aI00
aa(lp173
I0
aI700
aI100
ag2
aI00
aa(lp174
I0
aI750
aI100
ag2
aI00
aa(lp175
I0
aI750
aI50
ag2
aI00
aa(lp176
I0
aI750
aI0
ag2
aI00
aa(lp177
I0
aI750
aI-50
ag2
aI00
aa(lp178
I0
aI750
aI-100
ag2
aI00
aa(lp179
I0
aI700
aI-100
ag2
aI00
aa(lp180
I0
aI700
aI-50
ag2
aI00
aa(lp181
I0
aI700
aI0
ag2
aI00
aa(lp182
I0
aI700
aI50
ag2
aI00
aa(lp183
I0
aI650
aI50
ag2
aI00
aa(lp184
I0
aI600
aI50
ag2
aI00
aa(lp185
I0
aI600
aI0
ag2
aI00
aa(lp186
I0
aI650
aI-100
ag2
aI00
aa(lp187
I0
aI600
aI-100
ag2
aI00
aa(lp188
I0
aI600
aI-50
ag2
aI00
aa(lp189
I0
aI650
aI-50
ag2
aI00
aa(lp190
I0
aI650
aI0
ag2
aI00
aa(lp191
I8
aI350
aI-100
aS'door_closed2.png'
p192
aI01
aa(lp193
I8
aI450
aI-100
ag192
aI01
aa(lp194
I8
aI-50
aI0
ag192
aI01
aa(lp195
I7
aI-100
aI100
aS'door_closed1.png'
p196
aI01
aa(lp197
I7
aI400
aI100
ag196
aI01
aa(lp198
I8
aI550
aI100
ag192
aI01
aa(lp199
cpygame
__rect_constructor
p200
(I150
I0
I27
I46
tp201
Rp202
aa.