(lp0
(lp1
I0
aI50
aI0
aS'sand.png'
p2
aI00
aa(lp3
I1
aI100
aI0
aS'wall.png'
p4
aI01
aa(lp5
I2
aI150
aI0
aS'stairsBroken.png'
p6
aI00
aa(lp7
I3
aI200
aI0
aS'stairsDown.png'
p8
aI00
aa(lp9
I4
aI-150
aI50
aS'torch.png'
p10
aI00
aa(lp11
I4
aI450
aI-150
ag10
aI00
aa(lp12
I4
aI350
aI450
ag10
aI00
aa(lp13
cpygame
__rect_constructor
p14
(I150
I0
I27
I46
tp15
Rp16
aa.