(lp0
(lp1
I0
aI-250
aI100
aS'sand.png'
p2
aI00
aa(lp3
I2
aI-250
aI-50
aS'stairsBroken.png'
p4
aI00
aa(lp5
I1
aI-200
aI-100
aS'wall.png'
p6
aI01
aa(lp7
I1
aI-250
aI-100
ag6
aI01
aa(lp8
I1
aI-300
aI-100
ag6
aI01
aa(lp9
I1
aI-300
aI-50
ag6
aI01
aa(lp10
I1
aI-300
aI0
ag6
aI01
aa(lp11
I1
aI-300
aI50
ag6
aI01
aa(lp12
I1
aI-300
aI100
ag6
aI01
aa(lp13
I1
aI-300
aI150
ag6
aI01
aa(lp14
I0
aI-100
aI150
ag2
aI00
aa(lp15
I0
aI-150
aI150
ag2
aI00
aa(lp16
I0
aI-200
aI150
ag2
aI00
aa(lp17
I0
aI-200
aI-50
ag2
aI00
aa(lp18
I1
aI-100
aI200
ag6
aI01
aa(lp19
I1
aI-150
aI200
ag6
aI01
aa(lp20
I1
aI-200
aI200
ag6
aI01
aa(lp21
I1
aI-250
aI200
ag6
aI01
aa(lp22
I1
aI-300
aI200
ag6
aI01
aa(lp23
I0
aI-200
aI0
ag2
aI00
aa(lp24
I0
aI-200
aI100
ag2
aI00
aa(lp25
I0
aI-150
aI100
ag2
aI00
aa(lp26
I0
aI-100
aI100
ag2
aI00
aa(lp27
I0
aI0
aI100
ag2
aI00
aa(lp28
I0
aI-250
aI0
ag2
aI00
aa(lp29
I1
aI-250
aI50
ag6
aI01
aa(lp30
I1
aI-200
aI50
ag6
aI01
aa(lp31
I3
aI-250
aI150
aS'stairsDown.png'
p32
aI00
aa(lp33
I0
aI-150
aI-50
aS'sand.png'
p34
aI00
aa(lp35
I0
aI-150
aI0
ag34
aI00
aa(lp36
I0
aI-150
aI50
ag34
aI00
aa(lp37
I0
aI-100
aI50
ag2
aI00
aa(lp38
I0
aI0
aI50
ag2
aI00
aa(lp39
I0
aI350
aI100
ag2
aI00
aa(lp40
I0
aI100
aI50
ag2
aI00
aa(lp41
I0
aI300
aI150
ag2
aI00
aa(lp42
I0
aI150
aI50
ag2
aI00
aa(lp43
I0
aI200
aI50
ag2
aI00
aa(lp44
I0
aI250
aI50
ag2
aI00
aa(lp45
I0
aI250
aI150
ag2
aI00
aa(lp46
I0
aI200
aI150
ag2
aI00
aa(lp47
I0
aI150
aI150
ag2
aI00
aa(lp48
I0
aI50
aI150
ag2
aI00
aa(lp49
I0
aI100
aI150
ag2
aI00
aa(lp50
I0
aI0
aI250
ag2
aI00
aa(lp51
I0
aI-50
aI200
ag2
aI00
aa(lp52
I0
aI-50
aI150
ag2
aI00
aa(lp53
I0
aI250
aI0
ag2
aI00
aa(lp54
I0
aI200
aI0
ag2
aI00
aa(lp55
I0
aI100
aI-50
ag2
aI00
aa(lp56
I0
aI100
aI0
ag2
aI00
aa(lp57
I0
aI-50
aI-50
ag2
aI00
aa(lp58
I0
aI200
aI-150
ag2
aI00
aa(lp59
I0
aI250
aI-150
ag2
aI00
aa(lp60
I0
aI300
aI-150
ag2
aI00
aa(lp61
I0
aI400
aI-50
ag2
aI00
aa(lp62
I0
aI400
aI0
ag2
aI00
aa(lp63
I0
aI250
aI-50
ag2
aI00
aa(lp64
I0
aI150
aI-50
ag2
aI00
aa(lp65
I0
aI200
aI-50
ag2
aI00
aa(lp66
I0
aI350
aI-50
ag2
aI00
aa(lp67
I0
aI400
aI-150
ag2
aI00
aa(lp68
I0
aI400
aI-100
ag2
aI00
aa(lp69
I0
aI-50
aI-100
ag2
aI00
aa(lp70
I0
aI-100
aI-150
ag2
aI00
aa(lp71
I0
aI-50
aI-200
ag2
aI00
aa(lp72
I0
aI0
aI-100
ag2
aI00
aa(lp73
I0
aI200
aI-200
ag2
aI00
aa(lp74
I0
aI150
aI-150
ag2
aI00
aa(lp75
I0
aI100
aI-150
ag2
aI00
aa(lp76
I0
aI50
aI-150
ag2
aI00
aa(lp77
I0
aI350
aI-150
ag2
aI00
aa(lp78
I0
aI350
aI-100
ag2
aI00
aa(lp79
I0
aI350
aI0
ag2
aI00
aa(lp80
I0
aI200
aI200
ag2
aI00
aa(lp81
I0
aI-100
aI250
ag2
aI00
aa(lp82
I0
aI-50
aI250
ag2
aI00
aa(lp83
I0
aI-50
aI300
ag2
aI00
aa(lp84
I0
aI0
aI300
ag2
aI00
aa(lp85
I0
aI300
aI250
ag2
aI00
aa(lp86
I0
aI350
aI150
ag2
aI00
aa(lp87
I0
aI350
aI200
ag2
aI00
aa(lp88
I0
aI300
aI200
ag2
aI00
aa(lp89
I0
aI250
aI200
ag2
aI00
aa(lp90
I0
aI150
aI200
ag2
aI00
aa(lp91
I0
aI100
aI200
ag2
aI00
aa(lp92
I0
aI50
aI250
ag2
aI00
aa(lp93
I0
aI50
aI200
ag2
aI00
aa(lp94
I0
aI0
aI200
ag2
aI00
aa(lp95
I0
aI0
aI150
ag2
aI00
aa(lp96
I0
aI-50
aI100
ag2
aI00
aa(lp97
I0
aI-50
aI50
ag2
aI00
aa(lp98
I0
aI-50
aI0
ag2
aI00
aa(lp99
I0
aI-100
aI0
ag2
aI00
aa(lp100
I0
aI-100
aI-50
ag2
aI00
aa(lp101
I0
aI-100
aI-100
ag2
aI00
aa(lp102
I0
aI-150
aI-100
ag2
aI00
aa(lp103
I0
aI-150
aI-150
ag2
aI00
aa(lp104
I0
aI-150
aI-200
ag2
aI00
aa(lp105
I0
aI-100
aI-300
ag2
aI00
aa(lp106
I0
aI0
aI-150
ag2
aI00
aa(lp107
I0
aI-50
aI-150
ag2
aI00
aa(lp108
I0
aI-100
aI-200
ag2
aI00
aa(lp109
I0
aI-100
aI-250
ag2
aI00
aa(lp110
I0
aI-50
aI-250
ag2
aI00
aa(lp111
I0
aI-50
aI-300
ag2
aI00
aa(lp112
I0
aI0
aI-300
ag2
aI00
aa(lp113
I0
aI50
aI-300
ag2
aI00
aa(lp114
I0
aI150
aI-250
ag2
aI00
aa(lp115
I0
aI50
aI-200
ag2
aI00
aa(lp116
I0
aI0
aI-200
ag2
aI00
aa(lp117
I0
aI0
aI-250
ag2
aI00
aa(lp118
I0
aI50
aI-250
ag2
aI00
aa(lp119
I0
aI100
aI-300
ag2
aI00
aa(lp120
I0
aI200
aI-250
ag2
aI00
aa(lp121
I0
aI150
aI-200
ag2
aI00
aa(lp122
I0
aI100
aI-200
ag2
aI00
aa(lp123
I0
aI100
aI-250
ag2
aI00
aa(lp124
I0
aI150
aI-300
ag2
aI00
aa(lp125
I0
aI200
aI-300
ag2
aI00
aa(lp126
I0
aI250
aI-300
ag2
aI00
aa(lp127
I0
aI300
aI-300
ag2
aI00
aa(lp128
I0
aI350
aI-200
ag2
aI00
aa(lp129
I0
aI300
aI-200
ag2
aI00
aa(lp130
I0
aI250
aI-200
ag2
aI00
aa(lp131
I0
aI250
aI-250
ag2
aI00
aa(lp132
I0
aI300
aI-250
ag2
aI00
aa(lp133
I0
aI350
aI-250
ag2
aI00
aa(lp134
I0
aI350
aI-300
ag2
aI00
aa(lp135
I0
aI400
aI-300
ag2
aI00
aa(lp136
I0
aI450
aI-300
ag2
aI00
aa(lp137
I0
aI450
aI-250
ag2
aI00
aa(lp138
I0
aI450
aI-200
ag2
aI00
aa(lp139
I0
aI400
aI-250
ag2
aI00
aa(lp140
I0
aI400
aI-200
ag2
aI00
aa(lp141
I4
aI150
aI0
aS'torch.png'
p142
aI00
aa(lp143
I0
aI0
aI-50
ag2
aI00
aa(lp144
I0
aI0
aI0
ag2
aI00
aa(lp145
I0
aI500
aI50
ag2
aI00
aa(lp146
I0
aI500
aI-150
ag2
aI00
aa(lp147
I0
aI500
aI-100
ag2
aI00
aa(lp148
I0
aI500
aI-50
ag2
aI00
aa(lp149
I0
aI500
aI0
ag2
aI00
aa(lp150
I0
aI400
aI100
ag2
aI00
aa(lp151
I0
aI400
aI50
ag2
aI00
aa(lp152
I0
aI450
aI-150
ag2
aI00
aa(lp153
I0
aI450
aI-100
ag2
aI00
aa(lp154
I0
aI450
aI-50
ag2
aI00
aa(lp155
I0
aI450
aI0
ag2
aI00
aa(lp156
I0
aI450
aI50
ag2
aI00
aa(lp157
I0
aI400
aI150
ag2
aI00
aa(lp158
I0
aI450
aI100
ag2
aI00
aa(lp159
I0
aI500
aI100
ag2
aI00
aa(lp160
I0
aI500
aI150
ag2
aI00
aa(lp161
I0
aI450
aI150
ag2
aI00
aa(lp162
I0
aI350
aI250
ag2
aI00
aa(lp163
I0
aI400
aI250
ag2
aI00
aa(lp164
I0
aI400
aI200
ag2
aI00
aa(lp165
I0
aI450
aI200
ag2
aI00
aa(lp166
I0
aI450
aI250
ag2
aI00
aa(lp167
I0
aI450
aI300
ag2
aI00
aa(lp168
I0
aI400
aI300
ag2
aI00
aa(lp169
I0
aI350
aI300
ag2
aI00
aa(lp170
I0
aI100
aI250
ag2
aI00
aa(lp171
I0
aI150
aI250
ag2
aI00
aa(lp172
I0
aI200
aI250
ag2
aI00
aa(lp173
I0
aI250
aI250
ag2
aI00
aa(lp174
I0
aI300
aI300
ag2
aI00
aa(lp175
I0
aI250
aI300
ag2
aI00
aa(lp176
I0
aI200
aI300
ag2
aI00
aa(lp177
I0
aI50
aI300
ag2
aI00
aa(lp178
I0
aI100
aI300
ag2
aI00
aa(lp179
I0
aI150
aI300
ag2
aI00
aa(lp180
I0
aI350
aI50
ag2
aI00
aa(lp181
I0
aI300
aI50
ag2
aI00
aa(lp182
I0
aI300
aI100
ag2
aI00
aa(lp183
I0
aI250
aI100
ag2
aI00
aa(lp184
I0
aI200
aI100
ag2
aI00
aa(lp185
I0
aI150
aI100
ag2
aI00
aa(lp186
I0
aI100
aI100
ag2
aI00
aa(lp187
I0
aI50
aI100
ag2
aI00
aa(lp188
I0
aI50
aI50
ag2
aI00
aa(lp189
I0
aI50
aI0
ag2
aI00
aa(lp190
I0
aI50
aI-50
ag2
aI00
aa(lp191
I0
aI50
aI-100
ag2
aI00
aa(lp192
I0
aI100
aI-100
ag2
aI00
aa(lp193
I0
aI150
aI-100
ag2
aI00
aa(lp194
I0
aI200
aI-100
ag2
aI00
aa(lp195
I0
aI250
aI-100
ag2
aI00
aa(lp196
I0
aI300
aI-100
ag2
aI00
aa(lp197
I0
aI300
aI-50
ag2
aI00
aa(lp198
I0
aI300
aI0
ag2
aI00
aa(lp199
cpygame
__rect_constructor
p200
(I-250
I-50
I27
I46
tp201
Rp202
aa.