(lp0
(lp1
I0
aI0
aI100
aS'sand.png'
p2
aI00
aa(lp3
I0
aI-50
aI-150
ag2
aI00
aa(lp4
I0
aI200
aI-150
ag2
aI00
aa(lp5
I0
aI250
aI-150
ag2
aI00
aa(lp6
I0
aI250
aI0
ag2
aI00
aa(lp7
I0
aI200
aI-100
ag2
aI00
aa(lp8
I0
aI300
aI-150
ag2
aI00
aa(lp9
I0
aI350
aI-150
ag2
aI00
aa(lp10
I0
aI350
aI-100
ag2
aI00
aa(lp11
I0
aI350
aI0
ag2
aI00
aa(lp12
I0
aI350
aI50
ag2
aI00
aa(lp13
I0
aI350
aI100
ag2
aI00
aa(lp14
I0
aI350
aI150
ag2
aI00
aa(lp15
I0
aI0
aI200
ag2
aI00
aa(lp16
I0
aI-100
aI200
ag2
aI00
aa(lp17
I0
aI-150
aI200
ag2
aI00
aa(lp18
I0
aI-50
aI200
ag2
aI00
aa(lp19
I0
aI-50
aI100
ag2
aI00
aa(lp20
I0
aI-50
aI150
ag2
aI00
aa(lp21
I0
aI0
aI150
ag2
aI00
aa(lp22
I0
aI-50
aI-100
ag2
aI00
aa(lp23
I0
aI0
aI0
ag2
aI00
aa(lp24
I1
aI0
aI-200
aS'wall.png'
p25
aI01
aa(lp26
I1
aI-50
aI-200
ag25
aI01
aa(lp27
I1
aI-100
aI-200
ag25
aI01
aa(lp28
I1
aI-250
aI200
ag25
aI01
aa(lp29
I1
aI-250
aI250
ag25
aI01
aa(lp30
I1
aI-200
aI250
ag25
aI01
aa(lp31
I1
aI-150
aI250
ag25
aI01
aa(lp32
I1
aI-100
aI250
ag25
aI01
aa(lp33
I1
aI-50
aI250
ag25
aI01
aa(lp34
I1
aI0
aI250
ag25
aI01
aa(lp35
I1
aI50
aI250
ag25
aI01
aa(lp36
I1
aI100
aI250
ag25
aI01
aa(lp37
I1
aI150
aI250
ag25
aI01
aa(lp38
I1
aI300
aI250
ag25
aI01
aa(lp39
I1
aI350
aI250
ag25
aI01
aa(lp40
I1
aI400
aI250
ag25
aI01
aa(lp41
I1
aI400
aI200
ag25
aI01
aa(lp42
I1
aI400
aI150
ag25
aI01
aa(lp43
I1
aI400
aI100
ag25
aI01
aa(lp44
I1
aI400
aI50
ag25
aI01
aa(lp45
I1
aI400
aI0
ag25
aI01
aa(lp46
I1
aI400
aI-100
ag25
aI01
aa(lp47
I1
aI400
aI-150
ag25
aI01
aa(lp48
I1
aI400
aI-200
ag25
aI01
aa(lp49
I1
aI350
aI-200
ag25
aI01
aa(lp50
I1
aI300
aI-200
ag25
aI01
aa(lp51
I1
aI250
aI-200
ag25
aI01
aa(lp52
I1
aI200
aI-200
ag25
aI01
aa(lp53
I1
aI150
aI-200
ag25
aI01
aa(lp54
I1
aI100
aI-200
ag25
aI01
aa(lp55
I1
aI50
aI-200
ag25
aI01
aa(lp56
I0
aI200
aI0
ag2
aI00
aa(lp57
I3
aI350
aI200
aS'stairsDown.png'
p58
aI00
aa(lp59
I0
aI300
aI-100
ag2
aI00
aa(lp60
I0
aI50
aI0
ag2
aI00
aa(lp61
I0
aI100
aI0
ag2
aI00
aa(lp62
I0
aI100
aI50
ag2
aI00
aa(lp63
I0
aI50
aI50
ag2
aI00
aa(lp64
I0
aI0
aI50
ag2
aI00
aa(lp65
I0
aI250
aI-100
ag2
aI00
aa(lp66
I0
aI50
aI100
aS'sand.png'
p67
aI00
aa(lp68
I0
aI100
aI100
ag67
aI00
aa(lp69
I0
aI100
aI150
ag67
aI00
aa(lp70
I0
aI50
aI200
ag67
aI00
aa(lp71
I0
aI100
aI200
ag67
aI00
aa(lp72
I0
aI100
aI-50
ag2
aI00
aa(lp73
I0
aI50
aI-50
ag2
aI00
aa(lp74
I0
aI0
aI-50
ag2
aI00
aa(lp75
I0
aI100
aI-100
ag2
aI00
aa(lp76
I0
aI100
aI-150
ag2
aI00
aa(lp77
I0
aI50
aI-150
ag2
aI00
aa(lp78
I0
aI0
aI-150
ag2
aI00
aa(lp79
I0
aI0
aI-100
ag2
aI00
aa(lp80
I1
aI400
aI-50
ag25
aI01
aa(lp81
I1
aI350
aI-50
ag25
aI01
aa(lp82
I1
aI300
aI-50
ag25
aI01
aa(lp83
I1
aI250
aI-50
ag25
aI01
aa(lp84
I1
aI200
aI-50
ag25
aI01
aa(lp85
I1
aI150
aI-50
ag25
aI01
aa(lp86
I1
aI150
aI-100
ag25
aI01
aa(lp87
I8
aI150
aI-150
aS'door_closed2.png'
p88
aI01
aa(lp89
I1
aI300
aI200
ag25
aI01
aa(lp90
I1
aI300
aI150
ag25
aI01
aa(lp91
I1
aI300
aI100
ag25
aI01
aa(lp92
I1
aI300
aI50
ag25
aI01
aa(lp93
I1
aI250
aI50
ag25
aI01
aa(lp94
I1
aI200
aI50
ag25
aI01
aa(lp95
I1
aI150
aI50
ag25
aI01
aa(lp96
I1
aI150
aI100
ag25
aI01
aa(lp97
I1
aI150
aI150
ag25
aI01
aa(lp98
I1
aI150
aI200
ag25
aI01
aa(lp99
I10
aI150
aI0
aS'door_closedLock2.png'
p100
aI01
aa(lp101
I0
aI300
aI0
ag2
aI00
aa(lp102
I0
aI-100
aI150
ag2
aI00
aa(lp103
I0
aI-100
aI100
ag2
aI00
aa(lp104
I0
aI-100
aI50
ag2
aI00
aa(lp105
I0
aI-100
aI0
ag2
aI00
aa(lp106
I0
aI-100
aI-50
ag2
aI00
aa(lp107
I0
aI-100
aI-100
ag2
aI00
aa(lp108
I0
aI-100
aI-150
ag2
aI00
aa(lp109
I1
aI-150
aI-200
ag25
aI01
aa(lp110
I1
aI-150
aI-150
ag25
aI01
aa(lp111
I1
aI-150
aI-100
ag25
aI01
aa(lp112
I1
aI-150
aI-50
ag25
aI01
aa(lp113
I1
aI-150
aI0
ag25
aI01
aa(lp114
I1
aI-150
aI50
ag25
aI01
aa(lp115
I1
aI-150
aI100
ag25
aI01
aa(lp116
I1
aI-150
aI150
ag25
aI01
aa(lp117
I1
aI-50
aI50
ag25
aI01
aa(lp118
I1
aI50
aI-100
ag25
aI01
aa(lp119
I1
aI50
aI150
ag25
aI01
aa(lp120
I1
aI-50
aI0
ag25
aI01
aa(lp121
I0
aI-50
aI-50
ag2
aI00
aa(lp122
I2
aI-200
aI200
aS'stairsBroken.png'
p123
aI00
aa(lp124
I1
aI-200
aI150
ag25
aI01
aa(lp125
I1
aI-250
aI150
ag25
aI01
aa(lp126
I100
aS'chest.png'
p127
aI350
aI-150
aa(lp128
I102
aS'spikeblock.png'
p129
aI0
aI-44
aa(lp130
I102
ag129
aI-100
aI-89
aa(lp131
I102
ag129
aI100
aI-68
aa(lp132
I102
ag129
aI50
aI25
aa(lp133
cpygame
__rect_constructor
p134
(I-200
I200
I27
I46
tp135
Rp136
aa.